
Projet_reflow_oven.elf:     file format elf32-avr

Sections:
Idx Name          Size      VMA       LMA       File off  Algn
  0 .data         0000003c  00800100  00002402  00002496  2**0
                  CONTENTS, ALLOC, LOAD, DATA
  1 .text         00002402  00000000  00000000  00000094  2**1
                  CONTENTS, ALLOC, LOAD, READONLY, CODE
  2 .bss          00000062  0080013c  0080013c  000024d2  2**0
                  ALLOC
  3 .stab         00000c84  00000000  00000000  000024d4  2**2
                  CONTENTS, READONLY, DEBUGGING
  4 .stabstr      000001b6  00000000  00000000  00003158  2**0
                  CONTENTS, READONLY, DEBUGGING
  5 .debug_aranges 000001c0  00000000  00000000  0000330e  2**0
                  CONTENTS, READONLY, DEBUGGING
  6 .debug_pubnames 000007ca  00000000  00000000  000034ce  2**0
                  CONTENTS, READONLY, DEBUGGING
  7 .debug_info   00002454  00000000  00000000  00003c98  2**0
                  CONTENTS, READONLY, DEBUGGING
  8 .debug_abbrev 00000d6e  00000000  00000000  000060ec  2**0
                  CONTENTS, READONLY, DEBUGGING
  9 .debug_line   000024fd  00000000  00000000  00006e5a  2**0
                  CONTENTS, READONLY, DEBUGGING
 10 .debug_frame  00000580  00000000  00000000  00009358  2**2
                  CONTENTS, READONLY, DEBUGGING
 11 .debug_str    00000945  00000000  00000000  000098d8  2**0
                  CONTENTS, READONLY, DEBUGGING
 12 .debug_loc    000006f1  00000000  00000000  0000a21d  2**0
                  CONTENTS, READONLY, DEBUGGING
 13 .debug_pubtypes 000002b2  00000000  00000000  0000a90e  2**0
                  CONTENTS, READONLY, DEBUGGING
 14 .debug_ranges 00000048  00000000  00000000  0000abc0  2**0
                  CONTENTS, READONLY, DEBUGGING

Disassembly of section .text:

00000000 <__vectors>:
       0:	0c 94 b2 00 	jmp	0x164	; 0x164 <__ctors_end>
       4:	0c 94 cf 00 	jmp	0x19e	; 0x19e <__bad_interrupt>
       8:	0c 94 cf 00 	jmp	0x19e	; 0x19e <__bad_interrupt>
       c:	0c 94 7e 01 	jmp	0x2fc	; 0x2fc <__vector_3>
      10:	0c 94 cf 00 	jmp	0x19e	; 0x19e <__bad_interrupt>
      14:	0c 94 3a 01 	jmp	0x274	; 0x274 <__vector_5>
      18:	0c 94 cf 00 	jmp	0x19e	; 0x19e <__bad_interrupt>
      1c:	0c 94 00 0c 	jmp	0x1800	; 0x1800 <__vector_7>
      20:	0c 94 cf 00 	jmp	0x19e	; 0x19e <__bad_interrupt>
      24:	0c 94 cf 00 	jmp	0x19e	; 0x19e <__bad_interrupt>
      28:	0c 94 cf 00 	jmp	0x19e	; 0x19e <__bad_interrupt>
      2c:	0c 94 cf 00 	jmp	0x19e	; 0x19e <__bad_interrupt>
      30:	0c 94 cf 00 	jmp	0x19e	; 0x19e <__bad_interrupt>
      34:	0c 94 cf 00 	jmp	0x19e	; 0x19e <__bad_interrupt>
      38:	0c 94 cf 00 	jmp	0x19e	; 0x19e <__bad_interrupt>
      3c:	0c 94 cf 00 	jmp	0x19e	; 0x19e <__bad_interrupt>
      40:	0c 94 cf 00 	jmp	0x19e	; 0x19e <__bad_interrupt>
      44:	0c 94 e4 0c 	jmp	0x19c8	; 0x19c8 <__vector_17>
      48:	0c 94 cf 00 	jmp	0x19e	; 0x19e <__bad_interrupt>
      4c:	0c 94 cf 00 	jmp	0x19e	; 0x19e <__bad_interrupt>
      50:	0c 94 cf 00 	jmp	0x19e	; 0x19e <__bad_interrupt>
      54:	0c 94 cf 00 	jmp	0x19e	; 0x19e <__bad_interrupt>
      58:	0c 94 cf 00 	jmp	0x19e	; 0x19e <__bad_interrupt>
      5c:	0c 94 cf 00 	jmp	0x19e	; 0x19e <__bad_interrupt>
      60:	0c 94 7a 04 	jmp	0x8f4	; 0x8f4 <__vector_24>
      64:	0c 94 cf 00 	jmp	0x19e	; 0x19e <__bad_interrupt>

00000068 <__c.1659>:
      68:	30 46 46 00                                         0FF.

0000006c <__c.1661>:
      6c:	30 4e 00                                            0N.

0000006f <ST_WELCOME_TXT>:
      6f:	57 45 4c 43 4f 4d 45 3c 20 00                       WELCOME< .

00000079 <ST_TEMP_PTS_TXT>:
      79:	54 27 20 50 4f 49 4e 54 53 00                       T' POINTS.

00000083 <ST_PROFILES_TXT>:
      83:	50 52 4f 46 49 4c 45 3c 3e 00                       PROFILE<>.

0000008d <ST_PROFILES_SAVE_TXT>:
      8d:	53 41 56 45 3c 3e 00                                SAVE<>.

00000094 <ST_PROFILES_LOAD_TXT>:
      94:	4c 4f 41 44 3c 3e 00                                LOAD<>.

0000009b <ST_RUN_TXT>:
      9b:	52 55 4e 00                                         RUN.

0000009f <ST_MANUAL_TXT>:
      9f:	4d 41 4e 55 41 4c 20 3e 00                          MANUAL >.

000000a8 <ST_MANUAL_TEMP_TXT>:
      a8:	54 45 4d 50 00                                      TEMP.

000000ad <ST_MANUAL_CMD_TXT>:
      ad:	43 4f 4d 4d 41 4e 44 20 3e 00                       COMMAND >.

000000b7 <ST_MANUAL_SET_CMD_TXT>:
      b7:	44 55 54 59 20 43 59 43 4c 45 3c 20 00              DUTY CYCLE< .

000000c4 <Menu_State>:
      c4:	08 6f 00 e6 06 10 79 00 70 07 18 83 00 8a 07 19     .o....y.p.......
      d4:	8d 00 a4 07 1a 94 00 be 07 20 9b 00 d8 07 6e 9f     ......... ....n.
      e4:	00 f2 07 78 a8 00 0c 08 82 ad 00 26 08 83 b7 00     ...x.......&....
      f4:	79 08 00 00 00 00 00                                y......

000000fb <Menu_Nextstate>:
      fb:	08 00 08 08 01 20 08 04 10 08 05 6e 10 00 10 10     ..... .....n....
     10b:	01 08 10 04 18 18 00 18 18 01 10 18 04 20 18 05     ............. ..
     11b:	1a 18 02 19 19 00 19 19 05 18 19 02 1a 1a 00 1a     ................
     12b:	1a 05 19 1a 02 18 20 00 20 20 01 18 20 04 08 6e     ...... .  .. ..n
     13b:	00 6e 6e 01 82 6e 04 78 6e 02 08 78 00 78 78 01     .nn..n.xn..x.xx.
     14b:	6e 78 04 82 82 00 82 82 01 78 82 04 6e 82 02 83     nx.......x..n...
     15b:	83 00 83 83 05 82 00 00 00                          .........

00000164 <__ctors_end>:
     164:	11 24       	eor	r1, r1
     166:	1f be       	out	0x3f, r1	; 63
     168:	cf ef       	ldi	r28, 0xFF	; 255
     16a:	d4 e0       	ldi	r29, 0x04	; 4
     16c:	de bf       	out	0x3e, r29	; 62
     16e:	cd bf       	out	0x3d, r28	; 61

00000170 <__do_copy_data>:
     170:	11 e0       	ldi	r17, 0x01	; 1
     172:	a0 e0       	ldi	r26, 0x00	; 0
     174:	b1 e0       	ldi	r27, 0x01	; 1
     176:	e2 e0       	ldi	r30, 0x02	; 2
     178:	f4 e2       	ldi	r31, 0x24	; 36
     17a:	02 c0       	rjmp	.+4      	; 0x180 <__do_copy_data+0x10>
     17c:	05 90       	lpm	r0, Z+
     17e:	0d 92       	st	X+, r0
     180:	ac 33       	cpi	r26, 0x3C	; 60
     182:	b1 07       	cpc	r27, r17
     184:	d9 f7       	brne	.-10     	; 0x17c <__do_copy_data+0xc>

00000186 <__do_clear_bss>:
     186:	11 e0       	ldi	r17, 0x01	; 1
     188:	ac e3       	ldi	r26, 0x3C	; 60
     18a:	b1 e0       	ldi	r27, 0x01	; 1
     18c:	01 c0       	rjmp	.+2      	; 0x190 <.do_clear_bss_start>

0000018e <.do_clear_bss_loop>:
     18e:	1d 92       	st	X+, r1

00000190 <.do_clear_bss_start>:
     190:	ae 39       	cpi	r26, 0x9E	; 158
     192:	b1 07       	cpc	r27, r17
     194:	e1 f7       	brne	.-8      	; 0x18e <.do_clear_bss_loop>
     196:	0e 94 db 06 	call	0xdb6	; 0xdb6 <main>
     19a:	0c 94 ff 11 	jmp	0x23fe	; 0x23fe <_exit>

0000019e <__bad_interrupt>:
     19e:	0c 94 00 00 	jmp	0	; 0x0 <__vectors>

000001a2 <KEYBOARD_init>:
//PROTOTYPE FONCTIONS INTERNES
void read_key(void);

//CONTENU FONCTIONS EXTERNES
void KEYBOARD_init(void)
{
     1a2:	df 93       	push	r29
     1a4:	cf 93       	push	r28
     1a6:	cd b7       	in	r28, 0x3d	; 61
     1a8:	de b7       	in	r29, 0x3e	; 62
    // Init port pins
	cbiBF(DDRD,PD2);
     1aa:	8a e2       	ldi	r24, 0x2A	; 42
     1ac:	90 e0       	ldi	r25, 0x00	; 0
     1ae:	2a e2       	ldi	r18, 0x2A	; 42
     1b0:	30 e0       	ldi	r19, 0x00	; 0
     1b2:	f9 01       	movw	r30, r18
     1b4:	20 81       	ld	r18, Z
     1b6:	2b 7f       	andi	r18, 0xFB	; 251
     1b8:	fc 01       	movw	r30, r24
     1ba:	20 83       	st	Z, r18
	cbiBF(DDRD,PD3);
     1bc:	8a e2       	ldi	r24, 0x2A	; 42
     1be:	90 e0       	ldi	r25, 0x00	; 0
     1c0:	2a e2       	ldi	r18, 0x2A	; 42
     1c2:	30 e0       	ldi	r19, 0x00	; 0
     1c4:	f9 01       	movw	r30, r18
     1c6:	20 81       	ld	r18, Z
     1c8:	27 7f       	andi	r18, 0xF7	; 247
     1ca:	fc 01       	movw	r30, r24
     1cc:	20 83       	st	Z, r18
	cbiBF(DDRD,PD4);
     1ce:	8a e2       	ldi	r24, 0x2A	; 42
     1d0:	90 e0       	ldi	r25, 0x00	; 0
     1d2:	2a e2       	ldi	r18, 0x2A	; 42
     1d4:	30 e0       	ldi	r19, 0x00	; 0
     1d6:	f9 01       	movw	r30, r18
     1d8:	20 81       	ld	r18, Z
     1da:	2f 7e       	andi	r18, 0xEF	; 239
     1dc:	fc 01       	movw	r30, r24
     1de:	20 83       	st	Z, r18
	cbiBF(DDRB,PB6);
     1e0:	84 e2       	ldi	r24, 0x24	; 36
     1e2:	90 e0       	ldi	r25, 0x00	; 0
     1e4:	24 e2       	ldi	r18, 0x24	; 36
     1e6:	30 e0       	ldi	r19, 0x00	; 0
     1e8:	f9 01       	movw	r30, r18
     1ea:	20 81       	ld	r18, Z
     1ec:	2f 7b       	andi	r18, 0xBF	; 191
     1ee:	fc 01       	movw	r30, r24
     1f0:	20 83       	st	Z, r18
	cbiBF(DDRB,PB7);
     1f2:	84 e2       	ldi	r24, 0x24	; 36
     1f4:	90 e0       	ldi	r25, 0x00	; 0
     1f6:	24 e2       	ldi	r18, 0x24	; 36
     1f8:	30 e0       	ldi	r19, 0x00	; 0
     1fa:	f9 01       	movw	r30, r18
     1fc:	20 81       	ld	r18, Z
     1fe:	2f 77       	andi	r18, 0x7F	; 127
     200:	fc 01       	movw	r30, r24
     202:	20 83       	st	Z, r18

	PORTD |= PIND_MASK;		// PORTC to 1 => internal pull up
     204:	8b e2       	ldi	r24, 0x2B	; 43
     206:	90 e0       	ldi	r25, 0x00	; 0
     208:	2b e2       	ldi	r18, 0x2B	; 43
     20a:	30 e0       	ldi	r19, 0x00	; 0
     20c:	f9 01       	movw	r30, r18
     20e:	20 81       	ld	r18, Z
     210:	2c 61       	ori	r18, 0x1C	; 28
     212:	fc 01       	movw	r30, r24
     214:	20 83       	st	Z, r18
	PORTB |= PINB_MASK;
     216:	85 e2       	ldi	r24, 0x25	; 37
     218:	90 e0       	ldi	r25, 0x00	; 0
     21a:	25 e2       	ldi	r18, 0x25	; 37
     21c:	30 e0       	ldi	r19, 0x00	; 0
     21e:	f9 01       	movw	r30, r18
     220:	20 81       	ld	r18, Z
     222:	20 6c       	ori	r18, 0xC0	; 192
     224:	fc 01       	movw	r30, r24
     226:	20 83       	st	Z, r18
	
	MCUCR &= 0<<PUD;		// To ensure pull ups are not disabled
     228:	85 e5       	ldi	r24, 0x55	; 85
     22a:	90 e0       	ldi	r25, 0x00	; 0
     22c:	fc 01       	movw	r30, r24
     22e:	80 81       	ld	r24, Z
     230:	85 e5       	ldi	r24, 0x55	; 85
     232:	90 e0       	ldi	r25, 0x00	; 0
     234:	fc 01       	movw	r30, r24
     236:	10 82       	st	Z, r1
	
    // Enable pin change interrupt on PORTC
	PCMSK2 |= (1<<PCINT20)|(1<<PCINT19)|(1<<PCINT18);
     238:	8d e6       	ldi	r24, 0x6D	; 109
     23a:	90 e0       	ldi	r25, 0x00	; 0
     23c:	2d e6       	ldi	r18, 0x6D	; 109
     23e:	30 e0       	ldi	r19, 0x00	; 0
     240:	f9 01       	movw	r30, r18
     242:	20 81       	ld	r18, Z
     244:	2c 61       	ori	r18, 0x1C	; 28
     246:	fc 01       	movw	r30, r24
     248:	20 83       	st	Z, r18
    PCMSK0 |= (1<<PCINT7)|(1<<PCINT6);
     24a:	8b e6       	ldi	r24, 0x6B	; 107
     24c:	90 e0       	ldi	r25, 0x00	; 0
     24e:	2b e6       	ldi	r18, 0x6B	; 107
     250:	30 e0       	ldi	r19, 0x00	; 0
     252:	f9 01       	movw	r30, r18
     254:	20 81       	ld	r18, Z
     256:	20 6c       	ori	r18, 0xC0	; 192
     258:	fc 01       	movw	r30, r24
     25a:	20 83       	st	Z, r18
	
	// Enable interrupts
    PCICR |= (1<<PCIE2)|(1<<PCIE0);
     25c:	88 e6       	ldi	r24, 0x68	; 104
     25e:	90 e0       	ldi	r25, 0x00	; 0
     260:	28 e6       	ldi	r18, 0x68	; 104
     262:	30 e0       	ldi	r19, 0x00	; 0
     264:	f9 01       	movw	r30, r18
     266:	20 81       	ld	r18, Z
     268:	25 60       	ori	r18, 0x05	; 5
     26a:	fc 01       	movw	r30, r24
     26c:	20 83       	st	Z, r18
	
}
     26e:	cf 91       	pop	r28
     270:	df 91       	pop	r29
     272:	08 95       	ret

00000274 <__vector_5>:


ISR(PCINT2_vect)
{
     274:	1f 92       	push	r1
     276:	0f 92       	push	r0
     278:	0f b6       	in	r0, 0x3f	; 63
     27a:	0f 92       	push	r0
     27c:	11 24       	eor	r1, r1
     27e:	2f 93       	push	r18
     280:	3f 93       	push	r19
     282:	4f 93       	push	r20
     284:	5f 93       	push	r21
     286:	6f 93       	push	r22
     288:	7f 93       	push	r23
     28a:	8f 93       	push	r24
     28c:	9f 93       	push	r25
     28e:	af 93       	push	r26
     290:	bf 93       	push	r27
     292:	ef 93       	push	r30
     294:	ff 93       	push	r31
     296:	df 93       	push	r29
     298:	cf 93       	push	r28
     29a:	cd b7       	in	r28, 0x3d	; 61
     29c:	de b7       	in	r29, 0x3e	; 62
	cli();
     29e:	f8 94       	cli
	cbiBF(PCICR,PCIE2);
     2a0:	88 e6       	ldi	r24, 0x68	; 104
     2a2:	90 e0       	ldi	r25, 0x00	; 0
     2a4:	28 e6       	ldi	r18, 0x68	; 104
     2a6:	30 e0       	ldi	r19, 0x00	; 0
     2a8:	f9 01       	movw	r30, r18
     2aa:	20 81       	ld	r18, Z
     2ac:	2b 7f       	andi	r18, 0xFB	; 251
     2ae:	fc 01       	movw	r30, r24
     2b0:	20 83       	st	Z, r18
	cbiBF(PCICR,PCIE0);  
     2b2:	88 e6       	ldi	r24, 0x68	; 104
     2b4:	90 e0       	ldi	r25, 0x00	; 0
     2b6:	28 e6       	ldi	r18, 0x68	; 104
     2b8:	30 e0       	ldi	r19, 0x00	; 0
     2ba:	f9 01       	movw	r30, r18
     2bc:	20 81       	ld	r18, Z
     2be:	2e 7f       	andi	r18, 0xFE	; 254
     2c0:	fc 01       	movw	r30, r24
     2c2:	20 83       	st	Z, r18
	CBID_ReadKey = OS_addTimerCallback(read_key,KEY_TMR);
     2c4:	82 ec       	ldi	r24, 0xC2	; 194
     2c6:	91 e0       	ldi	r25, 0x01	; 1
     2c8:	64 e1       	ldi	r22, 0x14	; 20
     2ca:	70 e0       	ldi	r23, 0x00	; 0
     2cc:	0e 94 67 0b 	call	0x16ce	; 0x16ce <OS_addTimerCallback>
     2d0:	80 93 3d 01 	sts	0x013D, r24
	sei();
     2d4:	78 94       	sei
}
     2d6:	cf 91       	pop	r28
     2d8:	df 91       	pop	r29
     2da:	ff 91       	pop	r31
     2dc:	ef 91       	pop	r30
     2de:	bf 91       	pop	r27
     2e0:	af 91       	pop	r26
     2e2:	9f 91       	pop	r25
     2e4:	8f 91       	pop	r24
     2e6:	7f 91       	pop	r23
     2e8:	6f 91       	pop	r22
     2ea:	5f 91       	pop	r21
     2ec:	4f 91       	pop	r20
     2ee:	3f 91       	pop	r19
     2f0:	2f 91       	pop	r18
     2f2:	0f 90       	pop	r0
     2f4:	0f be       	out	0x3f, r0	; 63
     2f6:	0f 90       	pop	r0
     2f8:	1f 90       	pop	r1
     2fa:	18 95       	reti

000002fc <__vector_3>:
ISR(PCINT0_vect)
{
     2fc:	1f 92       	push	r1
     2fe:	0f 92       	push	r0
     300:	0f b6       	in	r0, 0x3f	; 63
     302:	0f 92       	push	r0
     304:	11 24       	eor	r1, r1
     306:	2f 93       	push	r18
     308:	3f 93       	push	r19
     30a:	4f 93       	push	r20
     30c:	5f 93       	push	r21
     30e:	6f 93       	push	r22
     310:	7f 93       	push	r23
     312:	8f 93       	push	r24
     314:	9f 93       	push	r25
     316:	af 93       	push	r26
     318:	bf 93       	push	r27
     31a:	ef 93       	push	r30
     31c:	ff 93       	push	r31
     31e:	df 93       	push	r29
     320:	cf 93       	push	r28
     322:	cd b7       	in	r28, 0x3d	; 61
     324:	de b7       	in	r29, 0x3e	; 62
	cli();
     326:	f8 94       	cli
	cbiBF(PCICR,PCIE2); 
     328:	88 e6       	ldi	r24, 0x68	; 104
     32a:	90 e0       	ldi	r25, 0x00	; 0
     32c:	28 e6       	ldi	r18, 0x68	; 104
     32e:	30 e0       	ldi	r19, 0x00	; 0
     330:	f9 01       	movw	r30, r18
     332:	20 81       	ld	r18, Z
     334:	2b 7f       	andi	r18, 0xFB	; 251
     336:	fc 01       	movw	r30, r24
     338:	20 83       	st	Z, r18
	cbiBF(PCICR,PCIE0); 
     33a:	88 e6       	ldi	r24, 0x68	; 104
     33c:	90 e0       	ldi	r25, 0x00	; 0
     33e:	28 e6       	ldi	r18, 0x68	; 104
     340:	30 e0       	ldi	r19, 0x00	; 0
     342:	f9 01       	movw	r30, r18
     344:	20 81       	ld	r18, Z
     346:	2e 7f       	andi	r18, 0xFE	; 254
     348:	fc 01       	movw	r30, r24
     34a:	20 83       	st	Z, r18
	CBID_ReadKey = OS_addTimerCallback(read_key,KEY_TMR);
     34c:	82 ec       	ldi	r24, 0xC2	; 194
     34e:	91 e0       	ldi	r25, 0x01	; 1
     350:	64 e1       	ldi	r22, 0x14	; 20
     352:	70 e0       	ldi	r23, 0x00	; 0
     354:	0e 94 67 0b 	call	0x16ce	; 0x16ce <OS_addTimerCallback>
     358:	80 93 3d 01 	sts	0x013D, r24
	sei();
     35c:	78 94       	sei
}
     35e:	cf 91       	pop	r28
     360:	df 91       	pop	r29
     362:	ff 91       	pop	r31
     364:	ef 91       	pop	r30
     366:	bf 91       	pop	r27
     368:	af 91       	pop	r26
     36a:	9f 91       	pop	r25
     36c:	8f 91       	pop	r24
     36e:	7f 91       	pop	r23
     370:	6f 91       	pop	r22
     372:	5f 91       	pop	r21
     374:	4f 91       	pop	r20
     376:	3f 91       	pop	r19
     378:	2f 91       	pop	r18
     37a:	0f 90       	pop	r0
     37c:	0f be       	out	0x3f, r0	; 63
     37e:	0f 90       	pop	r0
     380:	1f 90       	pop	r1
     382:	18 95       	reti

00000384 <read_key>:

void read_key(void)
{
     384:	df 93       	push	r29
     386:	cf 93       	push	r28
     388:	00 d0       	rcall	.+0      	; 0x38a <read_key+0x6>
     38a:	0f 92       	push	r0
     38c:	cd b7       	in	r28, 0x3d	; 61
     38e:	de b7       	in	r29, 0x3e	; 62
	CBID_ReadKey=OS_removeTimerCallback(CBID_ReadKey);
     390:	80 91 3d 01 	lds	r24, 0x013D
     394:	0e 94 bc 0b 	call	0x1778	; 0x1778 <OS_removeTimerCallback>
     398:	80 93 3d 01 	sts	0x013D, r24
	
    char buttonsD = 0;
     39c:	1a 82       	std	Y+2, r1	; 0x02
	char buttonsB = 0;
     39e:	1b 82       	std	Y+3, r1	; 0x03
    char key;
    buttonsD = ((~PIND) & PIND_MASK );
     3a0:	89 e2       	ldi	r24, 0x29	; 41
     3a2:	90 e0       	ldi	r25, 0x00	; 0
     3a4:	fc 01       	movw	r30, r24
     3a6:	80 81       	ld	r24, Z
     3a8:	80 95       	com	r24
     3aa:	8c 71       	andi	r24, 0x1C	; 28
     3ac:	8a 83       	std	Y+2, r24	; 0x02
	buttonsB = ((~PINB) & PINB_MASK ) ;
     3ae:	83 e2       	ldi	r24, 0x23	; 35
     3b0:	90 e0       	ldi	r25, 0x00	; 0
     3b2:	fc 01       	movw	r30, r24
     3b4:	80 81       	ld	r24, Z
     3b6:	80 95       	com	r24
     3b8:	80 7c       	andi	r24, 0xC0	; 192
     3ba:	8b 83       	std	Y+3, r24	; 0x03

    if (buttonsB & (1<<KEY_UP_PIN))
     3bc:	8b 81       	ldd	r24, Y+3	; 0x03
     3be:	88 2f       	mov	r24, r24
     3c0:	90 e0       	ldi	r25, 0x00	; 0
     3c2:	80 74       	andi	r24, 0x40	; 64
     3c4:	90 70       	andi	r25, 0x00	; 0
     3c6:	00 97       	sbiw	r24, 0x00	; 0
     3c8:	19 f0       	breq	.+6      	; 0x3d0 <read_key+0x4c>
        key = KEY_UP;
     3ca:	81 e0       	ldi	r24, 0x01	; 1
     3cc:	89 83       	std	Y+1, r24	; 0x01
     3ce:	25 c0       	rjmp	.+74     	; 0x41a <read_key+0x96>
    else if (buttonsD & (1<<KEY_DOWN_PIN))
     3d0:	8a 81       	ldd	r24, Y+2	; 0x02
     3d2:	88 2f       	mov	r24, r24
     3d4:	90 e0       	ldi	r25, 0x00	; 0
     3d6:	88 70       	andi	r24, 0x08	; 8
     3d8:	90 70       	andi	r25, 0x00	; 0
     3da:	00 97       	sbiw	r24, 0x00	; 0
     3dc:	19 f0       	breq	.+6      	; 0x3e4 <read_key+0x60>
        key = KEY_DOWN;
     3de:	84 e0       	ldi	r24, 0x04	; 4
     3e0:	89 83       	std	Y+1, r24	; 0x01
     3e2:	1b c0       	rjmp	.+54     	; 0x41a <read_key+0x96>
    else if (buttonsD & (1<<KEY_LEFT_PIN))
     3e4:	8a 81       	ldd	r24, Y+2	; 0x02
     3e6:	88 2f       	mov	r24, r24
     3e8:	90 e0       	ldi	r25, 0x00	; 0
     3ea:	80 71       	andi	r24, 0x10	; 16
     3ec:	90 70       	andi	r25, 0x00	; 0
     3ee:	00 97       	sbiw	r24, 0x00	; 0
     3f0:	19 f0       	breq	.+6      	; 0x3f8 <read_key+0x74>
        key = KEY_LEFT;
     3f2:	85 e0       	ldi	r24, 0x05	; 5
     3f4:	89 83       	std	Y+1, r24	; 0x01
     3f6:	11 c0       	rjmp	.+34     	; 0x41a <read_key+0x96>
    else if (buttonsB & (1<<KEY_RIGHT_PIN))
     3f8:	8b 81       	ldd	r24, Y+3	; 0x03
     3fa:	88 23       	and	r24, r24
     3fc:	1c f4       	brge	.+6      	; 0x404 <read_key+0x80>
        key = KEY_RIGHT;
     3fe:	82 e0       	ldi	r24, 0x02	; 2
     400:	89 83       	std	Y+1, r24	; 0x01
     402:	0b c0       	rjmp	.+22     	; 0x41a <read_key+0x96>
    else if (buttonsD & (1<<KEY_ENTER_PIN))
     404:	8a 81       	ldd	r24, Y+2	; 0x02
     406:	88 2f       	mov	r24, r24
     408:	90 e0       	ldi	r25, 0x00	; 0
     40a:	84 70       	andi	r24, 0x04	; 4
     40c:	90 70       	andi	r25, 0x00	; 0
     40e:	00 97       	sbiw	r24, 0x00	; 0
     410:	19 f0       	breq	.+6      	; 0x418 <read_key+0x94>
        key = KEY_ENTER;
     412:	83 e0       	ldi	r24, 0x03	; 3
     414:	89 83       	std	Y+1, r24	; 0x01
     416:	01 c0       	rjmp	.+2      	; 0x41a <read_key+0x96>
    else
        key = KEY_NULL;
     418:	19 82       	std	Y+1, r1	; 0x01
	
	
	if(KEY==key)
     41a:	90 91 3c 01 	lds	r25, 0x013C
     41e:	89 81       	ldd	r24, Y+1	; 0x01
     420:	98 17       	cp	r25, r24
     422:	19 f4       	brne	.+6      	; 0x42a <read_key+0xa6>
		KEY = KEY_NULL;
     424:	10 92 3c 01 	sts	0x013C, r1
     428:	03 c0       	rjmp	.+6      	; 0x430 <read_key+0xac>
	else
		KEY = key;
     42a:	89 81       	ldd	r24, Y+1	; 0x01
     42c:	80 93 3c 01 	sts	0x013C, r24
	
	sbiBF(PCICR,PCIE2);
     430:	88 e6       	ldi	r24, 0x68	; 104
     432:	90 e0       	ldi	r25, 0x00	; 0
     434:	28 e6       	ldi	r18, 0x68	; 104
     436:	30 e0       	ldi	r19, 0x00	; 0
     438:	f9 01       	movw	r30, r18
     43a:	20 81       	ld	r18, Z
     43c:	24 60       	ori	r18, 0x04	; 4
     43e:	fc 01       	movw	r30, r24
     440:	20 83       	st	Z, r18
	sbiBF(PCICR,PCIE0);
     442:	88 e6       	ldi	r24, 0x68	; 104
     444:	90 e0       	ldi	r25, 0x00	; 0
     446:	28 e6       	ldi	r18, 0x68	; 104
     448:	30 e0       	ldi	r19, 0x00	; 0
     44a:	f9 01       	movw	r30, r18
     44c:	20 81       	ld	r18, Z
     44e:	21 60       	ori	r18, 0x01	; 1
     450:	fc 01       	movw	r30, r24
     452:	20 83       	st	Z, r18
	
}
     454:	0f 90       	pop	r0
     456:	0f 90       	pop	r0
     458:	0f 90       	pop	r0
     45a:	cf 91       	pop	r28
     45c:	df 91       	pop	r29
     45e:	08 95       	ret

00000460 <KEYBOARD_getKey>:

char KEYBOARD_getKey(void)
{
     460:	df 93       	push	r29
     462:	cf 93       	push	r28
     464:	0f 92       	push	r0
     466:	cd b7       	in	r28, 0x3d	; 61
     468:	de b7       	in	r29, 0x3e	; 62
	char k=KEY;
     46a:	80 91 3c 01 	lds	r24, 0x013C
     46e:	89 83       	std	Y+1, r24	; 0x01
	KEY=KEY_NULL;
     470:	10 92 3c 01 	sts	0x013C, r1
    return k;
     474:	89 81       	ldd	r24, Y+1	; 0x01
}
     476:	0f 90       	pop	r0
     478:	cf 91       	pop	r28
     47a:	df 91       	pop	r29
     47c:	08 95       	ret

0000047e <EEPROM_writeByte>:
// internal functions
void writeByte(unsigned char statusCode);
void writePage(unsigned char statusCode);

void EEPROM_writeByte(unsigned char data,unsigned char deviceAddr,unsigned int byteAddr)
{
     47e:	df 93       	push	r29
     480:	cf 93       	push	r28
     482:	00 d0       	rcall	.+0      	; 0x484 <EEPROM_writeByte+0x6>
     484:	00 d0       	rcall	.+0      	; 0x486 <EEPROM_writeByte+0x8>
     486:	cd b7       	in	r28, 0x3d	; 61
     488:	de b7       	in	r29, 0x3e	; 62
     48a:	89 83       	std	Y+1, r24	; 0x01
     48c:	6a 83       	std	Y+2, r22	; 0x02
     48e:	5c 83       	std	Y+4, r21	; 0x04
     490:	4b 83       	std	Y+3, r20	; 0x03
	// TODO: test if the address is at the beginning of a page
	pointer = byteAddr;
     492:	8b 81       	ldd	r24, Y+3	; 0x03
     494:	9c 81       	ldd	r25, Y+4	; 0x04
     496:	90 93 58 01 	sts	0x0158, r25
     49a:	80 93 57 01 	sts	0x0157, r24
	buffer = &data;
     49e:	ce 01       	movw	r24, r28
     4a0:	01 96       	adiw	r24, 0x01	; 1
     4a2:	90 93 5a 01 	sts	0x015A, r25
     4a6:	80 93 59 01 	sts	0x0159, r24
	I2C_setAddress(deviceAddr);
     4aa:	8a 81       	ldd	r24, Y+2	; 0x02
     4ac:	0e 94 c4 03 	call	0x788	; 0x788 <I2C_setAddress>
	I2C_setFunction(writeByte);
     4b0:	87 e9       	ldi	r24, 0x97	; 151
     4b2:	92 e0       	ldi	r25, 0x02	; 2
     4b4:	0e 94 d1 03 	call	0x7a2	; 0x7a2 <I2C_setFunction>
	I2C_start();
     4b8:	0e 94 e3 03 	call	0x7c6	; 0x7c6 <I2C_start>
}
     4bc:	0f 90       	pop	r0
     4be:	0f 90       	pop	r0
     4c0:	0f 90       	pop	r0
     4c2:	0f 90       	pop	r0
     4c4:	cf 91       	pop	r28
     4c6:	df 91       	pop	r29
     4c8:	08 95       	ret

000004ca <EEPROM_writePage>:

void EEPROM_writePage(unsigned char* data,unsigned char deviceAddr,unsigned int pageAddr,unsigned char pageSize)
{
     4ca:	df 93       	push	r29
     4cc:	cf 93       	push	r28
     4ce:	00 d0       	rcall	.+0      	; 0x4d0 <EEPROM_writePage+0x6>
     4d0:	00 d0       	rcall	.+0      	; 0x4d2 <EEPROM_writePage+0x8>
     4d2:	00 d0       	rcall	.+0      	; 0x4d4 <EEPROM_writePage+0xa>
     4d4:	cd b7       	in	r28, 0x3d	; 61
     4d6:	de b7       	in	r29, 0x3e	; 62
     4d8:	9a 83       	std	Y+2, r25	; 0x02
     4da:	89 83       	std	Y+1, r24	; 0x01
     4dc:	6b 83       	std	Y+3, r22	; 0x03
     4de:	5d 83       	std	Y+5, r21	; 0x05
     4e0:	4c 83       	std	Y+4, r20	; 0x04
     4e2:	2e 83       	std	Y+6, r18	; 0x06
	// TODO: test if the address is at the beginning of a page
	pointer = pageAddr;
     4e4:	8c 81       	ldd	r24, Y+4	; 0x04
     4e6:	9d 81       	ldd	r25, Y+5	; 0x05
     4e8:	90 93 58 01 	sts	0x0158, r25
     4ec:	80 93 57 01 	sts	0x0157, r24
	pageWidth = pageSize;
     4f0:	8e 81       	ldd	r24, Y+6	; 0x06
     4f2:	88 2f       	mov	r24, r24
     4f4:	90 e0       	ldi	r25, 0x00	; 0
     4f6:	90 93 5c 01 	sts	0x015C, r25
     4fa:	80 93 5b 01 	sts	0x015B, r24
	buffer = data;
     4fe:	89 81       	ldd	r24, Y+1	; 0x01
     500:	9a 81       	ldd	r25, Y+2	; 0x02
     502:	90 93 5a 01 	sts	0x015A, r25
     506:	80 93 59 01 	sts	0x0159, r24
	I2C_setAddress(deviceAddr);
     50a:	8b 81       	ldd	r24, Y+3	; 0x03
     50c:	0e 94 c4 03 	call	0x788	; 0x788 <I2C_setAddress>
	I2C_setFunction(writePage);
     510:	80 ef       	ldi	r24, 0xF0	; 240
     512:	92 e0       	ldi	r25, 0x02	; 2
     514:	0e 94 d1 03 	call	0x7a2	; 0x7a2 <I2C_setFunction>
	I2C_start();
     518:	0e 94 e3 03 	call	0x7c6	; 0x7c6 <I2C_start>
}
     51c:	26 96       	adiw	r28, 0x06	; 6
     51e:	0f b6       	in	r0, 0x3f	; 63
     520:	f8 94       	cli
     522:	de bf       	out	0x3e, r29	; 62
     524:	0f be       	out	0x3f, r0	; 63
     526:	cd bf       	out	0x3d, r28	; 61
     528:	cf 91       	pop	r28
     52a:	df 91       	pop	r29
     52c:	08 95       	ret

0000052e <writeByte>:
/************************************************************************/
/* Function to write a byte												*/
/* Will be executed at each I2C interrupt                               */
/************************************************************************/
void writeByte(unsigned char statusCode)
{
     52e:	df 93       	push	r29
     530:	cf 93       	push	r28
     532:	0f 92       	push	r0
     534:	cd b7       	in	r28, 0x3d	; 61
     536:	de b7       	in	r29, 0x3e	; 62
     538:	89 83       	std	Y+1, r24	; 0x01
	static int index = 0;
	
	switch (statusCode)
     53a:	89 81       	ldd	r24, Y+1	; 0x01
     53c:	88 2f       	mov	r24, r24
     53e:	90 e0       	ldi	r25, 0x00	; 0
     540:	88 31       	cpi	r24, 0x18	; 24
     542:	91 05       	cpc	r25, r1
     544:	49 f0       	breq	.+18     	; 0x558 <writeByte+0x2a>
     546:	88 32       	cpi	r24, 0x28	; 40
     548:	91 05       	cpc	r25, r1
     54a:	79 f0       	breq	.+30     	; 0x56a <writeByte+0x3c>
     54c:	88 30       	cpi	r24, 0x08	; 8
     54e:	91 05       	cpc	r25, r1
     550:	d1 f5       	brne	.+116    	; 0x5c6 <writeByte+0x98>
	{
	case M_START_ACK : 
		I2C_sendSLAW();
     552:	0e 94 36 04 	call	0x86c	; 0x86c <I2C_sendSLAW>
		break;
     556:	37 c0       	rjmp	.+110    	; 0x5c6 <writeByte+0x98>
	case M_SLAW_ACK :
		I2C_send((unsigned char)(pointer>>8));
     558:	80 91 57 01 	lds	r24, 0x0157
     55c:	90 91 58 01 	lds	r25, 0x0158
     560:	89 2f       	mov	r24, r25
     562:	99 27       	eor	r25, r25
     564:	0e 94 15 04 	call	0x82a	; 0x82a <I2C_send>
		break;
     568:	2e c0       	rjmp	.+92     	; 0x5c6 <writeByte+0x98>
	case M_DATA_TX_ACK :
		if(index==2)
     56a:	80 91 41 01 	lds	r24, 0x0141
     56e:	90 91 42 01 	lds	r25, 0x0142
     572:	82 30       	cpi	r24, 0x02	; 2
     574:	91 05       	cpc	r25, r1
     576:	39 f4       	brne	.+14     	; 0x586 <writeByte+0x58>
			I2C_send((unsigned char)(pointer&0xFF));
     578:	80 91 57 01 	lds	r24, 0x0157
     57c:	90 91 58 01 	lds	r25, 0x0158
     580:	0e 94 15 04 	call	0x82a	; 0x82a <I2C_send>
		{
			I2C_stop();
			index = 0;
			return ;
		}
		break;
     584:	20 c0       	rjmp	.+64     	; 0x5c6 <writeByte+0x98>
		I2C_send((unsigned char)(pointer>>8));
		break;
	case M_DATA_TX_ACK :
		if(index==2)
			I2C_send((unsigned char)(pointer&0xFF));
		else if (index == 3)
     586:	80 91 41 01 	lds	r24, 0x0141
     58a:	90 91 42 01 	lds	r25, 0x0142
     58e:	83 30       	cpi	r24, 0x03	; 3
     590:	91 05       	cpc	r25, r1
     592:	91 f4       	brne	.+36     	; 0x5b8 <writeByte+0x8a>
		{
			I2C_send(*buffer);
     594:	80 91 59 01 	lds	r24, 0x0159
     598:	90 91 5a 01 	lds	r25, 0x015A
     59c:	fc 01       	movw	r30, r24
     59e:	80 81       	ld	r24, Z
     5a0:	0e 94 15 04 	call	0x82a	; 0x82a <I2C_send>
			pointer +=1;
     5a4:	80 91 57 01 	lds	r24, 0x0157
     5a8:	90 91 58 01 	lds	r25, 0x0158
     5ac:	01 96       	adiw	r24, 0x01	; 1
     5ae:	90 93 58 01 	sts	0x0158, r25
     5b2:	80 93 57 01 	sts	0x0157, r24
		{
			I2C_stop();
			index = 0;
			return ;
		}
		break;
     5b6:	07 c0       	rjmp	.+14     	; 0x5c6 <writeByte+0x98>
			I2C_send(*buffer);
			pointer +=1;
		}			
		else
		{
			I2C_stop();
     5b8:	0e 94 fc 03 	call	0x7f8	; 0x7f8 <I2C_stop>
			index = 0;
     5bc:	10 92 42 01 	sts	0x0142, r1
     5c0:	10 92 41 01 	sts	0x0141, r1
			return ;
     5c4:	09 c0       	rjmp	.+18     	; 0x5d8 <writeByte+0xaa>
		}
		break;
	}
	
	index+=1;
     5c6:	80 91 41 01 	lds	r24, 0x0141
     5ca:	90 91 42 01 	lds	r25, 0x0142
     5ce:	01 96       	adiw	r24, 0x01	; 1
     5d0:	90 93 42 01 	sts	0x0142, r25
     5d4:	80 93 41 01 	sts	0x0141, r24
}
     5d8:	0f 90       	pop	r0
     5da:	cf 91       	pop	r28
     5dc:	df 91       	pop	r29
     5de:	08 95       	ret

000005e0 <writePage>:
/************************************************************************/
/* Function to write a page												*/
/* Will be executed at each I2C interrupt                               */
/************************************************************************/
void writePage(unsigned char statusCode)
{
     5e0:	df 93       	push	r29
     5e2:	cf 93       	push	r28
     5e4:	0f 92       	push	r0
     5e6:	cd b7       	in	r28, 0x3d	; 61
     5e8:	de b7       	in	r29, 0x3e	; 62
     5ea:	89 83       	std	Y+1, r24	; 0x01
	static int index = 0;
	
	switch (statusCode)
     5ec:	89 81       	ldd	r24, Y+1	; 0x01
     5ee:	88 2f       	mov	r24, r24
     5f0:	90 e0       	ldi	r25, 0x00	; 0
     5f2:	88 31       	cpi	r24, 0x18	; 24
     5f4:	91 05       	cpc	r25, r1
     5f6:	51 f0       	breq	.+20     	; 0x60c <writePage+0x2c>
     5f8:	88 32       	cpi	r24, 0x28	; 40
     5fa:	91 05       	cpc	r25, r1
     5fc:	81 f0       	breq	.+32     	; 0x61e <writePage+0x3e>
     5fe:	88 30       	cpi	r24, 0x08	; 8
     600:	91 05       	cpc	r25, r1
     602:	09 f0       	breq	.+2      	; 0x606 <writePage+0x26>
     604:	40 c0       	rjmp	.+128    	; 0x686 <writePage+0xa6>
	{
	case M_START_ACK : 
		I2C_sendSLAW();
     606:	0e 94 36 04 	call	0x86c	; 0x86c <I2C_sendSLAW>
		break;
     60a:	3d c0       	rjmp	.+122    	; 0x686 <writePage+0xa6>
	case M_SLAW_ACK :
		I2C_send((unsigned char)(pointer>>8));
     60c:	80 91 57 01 	lds	r24, 0x0157
     610:	90 91 58 01 	lds	r25, 0x0158
     614:	89 2f       	mov	r24, r25
     616:	99 27       	eor	r25, r25
     618:	0e 94 15 04 	call	0x82a	; 0x82a <I2C_send>
		break;
     61c:	34 c0       	rjmp	.+104    	; 0x686 <writePage+0xa6>
	case M_DATA_TX_ACK :
		if(index==2)
     61e:	80 91 3f 01 	lds	r24, 0x013F
     622:	90 91 40 01 	lds	r25, 0x0140
     626:	82 30       	cpi	r24, 0x02	; 2
     628:	91 05       	cpc	r25, r1
     62a:	39 f4       	brne	.+14     	; 0x63a <writePage+0x5a>
			I2C_send((unsigned char)(pointer&0xFF));
     62c:	80 91 57 01 	lds	r24, 0x0157
     630:	90 91 58 01 	lds	r25, 0x0158
     634:	0e 94 15 04 	call	0x82a	; 0x82a <I2C_send>
		{
			I2C_stop();
			index = 0;
			return ;
		}
		break;
     638:	26 c0       	rjmp	.+76     	; 0x686 <writePage+0xa6>
		I2C_send((unsigned char)(pointer>>8));
		break;
	case M_DATA_TX_ACK :
		if(index==2)
			I2C_send((unsigned char)(pointer&0xFF));
		else if (index < 35)
     63a:	80 91 3f 01 	lds	r24, 0x013F
     63e:	90 91 40 01 	lds	r25, 0x0140
     642:	83 32       	cpi	r24, 0x23	; 35
     644:	91 05       	cpc	r25, r1
     646:	c4 f4       	brge	.+48     	; 0x678 <writePage+0x98>
		{
			I2C_send(*buffer++);
     648:	80 91 59 01 	lds	r24, 0x0159
     64c:	90 91 5a 01 	lds	r25, 0x015A
     650:	fc 01       	movw	r30, r24
     652:	20 81       	ld	r18, Z
     654:	01 96       	adiw	r24, 0x01	; 1
     656:	90 93 5a 01 	sts	0x015A, r25
     65a:	80 93 59 01 	sts	0x0159, r24
     65e:	82 2f       	mov	r24, r18
     660:	0e 94 15 04 	call	0x82a	; 0x82a <I2C_send>
			pointer +=1;
     664:	80 91 57 01 	lds	r24, 0x0157
     668:	90 91 58 01 	lds	r25, 0x0158
     66c:	01 96       	adiw	r24, 0x01	; 1
     66e:	90 93 58 01 	sts	0x0158, r25
     672:	80 93 57 01 	sts	0x0157, r24
		{
			I2C_stop();
			index = 0;
			return ;
		}
		break;
     676:	07 c0       	rjmp	.+14     	; 0x686 <writePage+0xa6>
			I2C_send(*buffer++);
			pointer +=1;
		}			
		else
		{
			I2C_stop();
     678:	0e 94 fc 03 	call	0x7f8	; 0x7f8 <I2C_stop>
			index = 0;
     67c:	10 92 40 01 	sts	0x0140, r1
     680:	10 92 3f 01 	sts	0x013F, r1
			return ;
     684:	09 c0       	rjmp	.+18     	; 0x698 <writePage+0xb8>
		}
		break;
	}
	
	index+=1;
     686:	80 91 3f 01 	lds	r24, 0x013F
     68a:	90 91 40 01 	lds	r25, 0x0140
     68e:	01 96       	adiw	r24, 0x01	; 1
     690:	90 93 40 01 	sts	0x0140, r25
     694:	80 93 3f 01 	sts	0x013F, r24
     698:	0f 90       	pop	r0
     69a:	cf 91       	pop	r28
     69c:	df 91       	pop	r29
     69e:	08 95       	ret

000006a0 <hardware_init>:
#include "button.h"
#include "hardware.h"
#include "lcd.h"

void hardware_init(void)
{
     6a0:	df 93       	push	r29
     6a2:	cf 93       	push	r28
     6a4:	cd b7       	in	r28, 0x3d	; 61
     6a6:	de b7       	in	r29, 0x3e	; 62

	statusLed_init();
     6a8:	0e 94 5d 03 	call	0x6ba	; 0x6ba <statusLed_init>
	
	lcd_init(LCD_DISP_ON);
     6ac:	8c e0       	ldi	r24, 0x0C	; 12
     6ae:	0e 94 68 06 	call	0xcd0	; 0xcd0 <lcd_init>
	
	sei();
     6b2:	78 94       	sei
}
     6b4:	cf 91       	pop	r28
     6b6:	df 91       	pop	r29
     6b8:	08 95       	ret

000006ba <statusLed_init>:

void statusLed_init(void)
{
     6ba:	df 93       	push	r29
     6bc:	cf 93       	push	r28
     6be:	cd b7       	in	r28, 0x3d	; 61
     6c0:	de b7       	in	r29, 0x3e	; 62
	sbiBF(DDRD,PIN_STATUS_LED);		// output Mode
     6c2:	8a e2       	ldi	r24, 0x2A	; 42
     6c4:	90 e0       	ldi	r25, 0x00	; 0
     6c6:	2a e2       	ldi	r18, 0x2A	; 42
     6c8:	30 e0       	ldi	r19, 0x00	; 0
     6ca:	f9 01       	movw	r30, r18
     6cc:	20 81       	ld	r18, Z
     6ce:	20 62       	ori	r18, 0x20	; 32
     6d0:	fc 01       	movw	r30, r24
     6d2:	20 83       	st	Z, r18
	sbiBF(PORTD,PIN_STATUS_LED);	// ON at startup
     6d4:	8b e2       	ldi	r24, 0x2B	; 43
     6d6:	90 e0       	ldi	r25, 0x00	; 0
     6d8:	2b e2       	ldi	r18, 0x2B	; 43
     6da:	30 e0       	ldi	r19, 0x00	; 0
     6dc:	f9 01       	movw	r30, r18
     6de:	20 81       	ld	r18, Z
     6e0:	20 62       	ori	r18, 0x20	; 32
     6e2:	fc 01       	movw	r30, r24
     6e4:	20 83       	st	Z, r18
}
     6e6:	cf 91       	pop	r28
     6e8:	df 91       	pop	r29
     6ea:	08 95       	ret

000006ec <statusLedOn>:

void statusLedOn(void)
{
     6ec:	df 93       	push	r29
     6ee:	cf 93       	push	r28
     6f0:	cd b7       	in	r28, 0x3d	; 61
     6f2:	de b7       	in	r29, 0x3e	; 62
	sbiBF(PORTD,PIN_STATUS_LED);
     6f4:	8b e2       	ldi	r24, 0x2B	; 43
     6f6:	90 e0       	ldi	r25, 0x00	; 0
     6f8:	2b e2       	ldi	r18, 0x2B	; 43
     6fa:	30 e0       	ldi	r19, 0x00	; 0
     6fc:	f9 01       	movw	r30, r18
     6fe:	20 81       	ld	r18, Z
     700:	20 62       	ori	r18, 0x20	; 32
     702:	fc 01       	movw	r30, r24
     704:	20 83       	st	Z, r18
}
     706:	cf 91       	pop	r28
     708:	df 91       	pop	r29
     70a:	08 95       	ret

0000070c <statusLedOff>:

void statusLedOff(void)
{
     70c:	df 93       	push	r29
     70e:	cf 93       	push	r28
     710:	cd b7       	in	r28, 0x3d	; 61
     712:	de b7       	in	r29, 0x3e	; 62
	cbiBF(PORTD,PIN_STATUS_LED);
     714:	8b e2       	ldi	r24, 0x2B	; 43
     716:	90 e0       	ldi	r25, 0x00	; 0
     718:	2b e2       	ldi	r18, 0x2B	; 43
     71a:	30 e0       	ldi	r19, 0x00	; 0
     71c:	f9 01       	movw	r30, r18
     71e:	20 81       	ld	r18, Z
     720:	2f 7d       	andi	r18, 0xDF	; 223
     722:	fc 01       	movw	r30, r24
     724:	20 83       	st	Z, r18
}
     726:	cf 91       	pop	r28
     728:	df 91       	pop	r29
     72a:	08 95       	ret

0000072c <statusLedToggle>:

void statusLedToggle(void)
{
     72c:	df 93       	push	r29
     72e:	cf 93       	push	r28
     730:	cd b7       	in	r28, 0x3d	; 61
     732:	de b7       	in	r29, 0x3e	; 62
	PIND = (1<<PIN_STATUS_LED);
     734:	89 e2       	ldi	r24, 0x29	; 41
     736:	90 e0       	ldi	r25, 0x00	; 0
     738:	20 e2       	ldi	r18, 0x20	; 32
     73a:	fc 01       	movw	r30, r24
     73c:	20 83       	st	Z, r18
}
     73e:	cf 91       	pop	r28
     740:	df 91       	pop	r29
     742:	08 95       	ret

00000744 <I2C_init>:

// pointer to the function to be used 
void (*I2C_function)(unsigned char statusCode);

void I2C_init(int sclKHz)
{
     744:	df 93       	push	r29
     746:	cf 93       	push	r28
     748:	00 d0       	rcall	.+0      	; 0x74a <I2C_init+0x6>
     74a:	cd b7       	in	r28, 0x3d	; 61
     74c:	de b7       	in	r29, 0x3e	; 62
     74e:	9a 83       	std	Y+2, r25	; 0x02
     750:	89 83       	std	Y+1, r24	; 0x01
	
	TWSR &= ~((1<<TWPS1)|(1<<TWPS0));
     752:	89 eb       	ldi	r24, 0xB9	; 185
     754:	90 e0       	ldi	r25, 0x00	; 0
     756:	29 eb       	ldi	r18, 0xB9	; 185
     758:	30 e0       	ldi	r19, 0x00	; 0
     75a:	f9 01       	movw	r30, r18
     75c:	20 81       	ld	r18, Z
     75e:	2c 7f       	andi	r18, 0xFC	; 252
     760:	fc 01       	movw	r30, r24
     762:	20 83       	st	Z, r18
	TWBR = 0;
     764:	88 eb       	ldi	r24, 0xB8	; 184
     766:	90 e0       	ldi	r25, 0x00	; 0
     768:	fc 01       	movw	r30, r24
     76a:	10 82       	st	Z, r1
	//TWBR = ((CPU_F/1000)-(sclKHz))/(2*sclKHz*PRESCALER);
	TWCR |= (1<<TWEA)|(1<<TWEN)|(1<<TWIE);
     76c:	8c eb       	ldi	r24, 0xBC	; 188
     76e:	90 e0       	ldi	r25, 0x00	; 0
     770:	2c eb       	ldi	r18, 0xBC	; 188
     772:	30 e0       	ldi	r19, 0x00	; 0
     774:	f9 01       	movw	r30, r18
     776:	20 81       	ld	r18, Z
     778:	25 64       	ori	r18, 0x45	; 69
     77a:	fc 01       	movw	r30, r24
     77c:	20 83       	st	Z, r18
}
     77e:	0f 90       	pop	r0
     780:	0f 90       	pop	r0
     782:	cf 91       	pop	r28
     784:	df 91       	pop	r29
     786:	08 95       	ret

00000788 <I2C_setAddress>:

void I2C_setAddress(unsigned char addr)
{
     788:	df 93       	push	r29
     78a:	cf 93       	push	r28
     78c:	0f 92       	push	r0
     78e:	cd b7       	in	r28, 0x3d	; 61
     790:	de b7       	in	r29, 0x3e	; 62
     792:	89 83       	std	Y+1, r24	; 0x01
	SLA = addr;
     794:	89 81       	ldd	r24, Y+1	; 0x01
     796:	80 93 60 01 	sts	0x0160, r24
}
     79a:	0f 90       	pop	r0
     79c:	cf 91       	pop	r28
     79e:	df 91       	pop	r29
     7a0:	08 95       	ret

000007a2 <I2C_setFunction>:
void I2C_setFunction(void *func(unsigned char))
{
     7a2:	df 93       	push	r29
     7a4:	cf 93       	push	r28
     7a6:	00 d0       	rcall	.+0      	; 0x7a8 <I2C_setFunction+0x6>
     7a8:	cd b7       	in	r28, 0x3d	; 61
     7aa:	de b7       	in	r29, 0x3e	; 62
     7ac:	9a 83       	std	Y+2, r25	; 0x02
     7ae:	89 83       	std	Y+1, r24	; 0x01
	I2C_function=func;
     7b0:	89 81       	ldd	r24, Y+1	; 0x01
     7b2:	9a 81       	ldd	r25, Y+2	; 0x02
     7b4:	90 93 5f 01 	sts	0x015F, r25
     7b8:	80 93 5e 01 	sts	0x015E, r24
}	
     7bc:	0f 90       	pop	r0
     7be:	0f 90       	pop	r0
     7c0:	cf 91       	pop	r28
     7c2:	df 91       	pop	r29
     7c4:	08 95       	ret

000007c6 <I2C_start>:

void I2C_start(void)
{
     7c6:	df 93       	push	r29
     7c8:	cf 93       	push	r28
     7ca:	cd b7       	in	r28, 0x3d	; 61
     7cc:	de b7       	in	r29, 0x3e	; 62
	TWCR |= (1<<TWSTA);
     7ce:	8c eb       	ldi	r24, 0xBC	; 188
     7d0:	90 e0       	ldi	r25, 0x00	; 0
     7d2:	2c eb       	ldi	r18, 0xBC	; 188
     7d4:	30 e0       	ldi	r19, 0x00	; 0
     7d6:	f9 01       	movw	r30, r18
     7d8:	20 81       	ld	r18, Z
     7da:	20 62       	ori	r18, 0x20	; 32
     7dc:	fc 01       	movw	r30, r24
     7de:	20 83       	st	Z, r18
	TWCR |= (1<<TWINT);
     7e0:	8c eb       	ldi	r24, 0xBC	; 188
     7e2:	90 e0       	ldi	r25, 0x00	; 0
     7e4:	2c eb       	ldi	r18, 0xBC	; 188
     7e6:	30 e0       	ldi	r19, 0x00	; 0
     7e8:	f9 01       	movw	r30, r18
     7ea:	20 81       	ld	r18, Z
     7ec:	20 68       	ori	r18, 0x80	; 128
     7ee:	fc 01       	movw	r30, r24
     7f0:	20 83       	st	Z, r18
}
     7f2:	cf 91       	pop	r28
     7f4:	df 91       	pop	r29
     7f6:	08 95       	ret

000007f8 <I2C_stop>:

void I2C_stop(void)
{
     7f8:	df 93       	push	r29
     7fa:	cf 93       	push	r28
     7fc:	cd b7       	in	r28, 0x3d	; 61
     7fe:	de b7       	in	r29, 0x3e	; 62
	TWCR &= ~(1<<TWSTA);
     800:	8c eb       	ldi	r24, 0xBC	; 188
     802:	90 e0       	ldi	r25, 0x00	; 0
     804:	2c eb       	ldi	r18, 0xBC	; 188
     806:	30 e0       	ldi	r19, 0x00	; 0
     808:	f9 01       	movw	r30, r18
     80a:	20 81       	ld	r18, Z
     80c:	2f 7d       	andi	r18, 0xDF	; 223
     80e:	fc 01       	movw	r30, r24
     810:	20 83       	st	Z, r18
	TWCR |= (1<<TWINT)|(1<<TWSTO);
     812:	8c eb       	ldi	r24, 0xBC	; 188
     814:	90 e0       	ldi	r25, 0x00	; 0
     816:	2c eb       	ldi	r18, 0xBC	; 188
     818:	30 e0       	ldi	r19, 0x00	; 0
     81a:	f9 01       	movw	r30, r18
     81c:	20 81       	ld	r18, Z
     81e:	20 69       	ori	r18, 0x90	; 144
     820:	fc 01       	movw	r30, r24
     822:	20 83       	st	Z, r18
}	
     824:	cf 91       	pop	r28
     826:	df 91       	pop	r29
     828:	08 95       	ret

0000082a <I2C_send>:

void I2C_send(unsigned char data)
{
     82a:	df 93       	push	r29
     82c:	cf 93       	push	r28
     82e:	0f 92       	push	r0
     830:	cd b7       	in	r28, 0x3d	; 61
     832:	de b7       	in	r29, 0x3e	; 62
     834:	89 83       	std	Y+1, r24	; 0x01
	TWDR = data;
     836:	8b eb       	ldi	r24, 0xBB	; 187
     838:	90 e0       	ldi	r25, 0x00	; 0
     83a:	29 81       	ldd	r18, Y+1	; 0x01
     83c:	fc 01       	movw	r30, r24
     83e:	20 83       	st	Z, r18
	TWCR &= ~((1<<TWSTA)|(1<<TWSTO));
     840:	8c eb       	ldi	r24, 0xBC	; 188
     842:	90 e0       	ldi	r25, 0x00	; 0
     844:	2c eb       	ldi	r18, 0xBC	; 188
     846:	30 e0       	ldi	r19, 0x00	; 0
     848:	f9 01       	movw	r30, r18
     84a:	20 81       	ld	r18, Z
     84c:	2f 7c       	andi	r18, 0xCF	; 207
     84e:	fc 01       	movw	r30, r24
     850:	20 83       	st	Z, r18
	TWCR |= (1<<TWINT);
     852:	8c eb       	ldi	r24, 0xBC	; 188
     854:	90 e0       	ldi	r25, 0x00	; 0
     856:	2c eb       	ldi	r18, 0xBC	; 188
     858:	30 e0       	ldi	r19, 0x00	; 0
     85a:	f9 01       	movw	r30, r18
     85c:	20 81       	ld	r18, Z
     85e:	20 68       	ori	r18, 0x80	; 128
     860:	fc 01       	movw	r30, r24
     862:	20 83       	st	Z, r18
}
     864:	0f 90       	pop	r0
     866:	cf 91       	pop	r28
     868:	df 91       	pop	r29
     86a:	08 95       	ret

0000086c <I2C_sendSLAW>:

void I2C_sendSLAW()
{
     86c:	df 93       	push	r29
     86e:	cf 93       	push	r28
     870:	cd b7       	in	r28, 0x3d	; 61
     872:	de b7       	in	r29, 0x3e	; 62
	TWDR = (SLA<<1)|0b0;
     874:	8b eb       	ldi	r24, 0xBB	; 187
     876:	90 e0       	ldi	r25, 0x00	; 0
     878:	20 91 60 01 	lds	r18, 0x0160
     87c:	22 0f       	add	r18, r18
     87e:	fc 01       	movw	r30, r24
     880:	20 83       	st	Z, r18
	TWCR &= ~((1<<TWSTA)|(1<<TWSTO));
     882:	8c eb       	ldi	r24, 0xBC	; 188
     884:	90 e0       	ldi	r25, 0x00	; 0
     886:	2c eb       	ldi	r18, 0xBC	; 188
     888:	30 e0       	ldi	r19, 0x00	; 0
     88a:	f9 01       	movw	r30, r18
     88c:	20 81       	ld	r18, Z
     88e:	2f 7c       	andi	r18, 0xCF	; 207
     890:	fc 01       	movw	r30, r24
     892:	20 83       	st	Z, r18
	TWCR |= (1<<TWINT);
     894:	8c eb       	ldi	r24, 0xBC	; 188
     896:	90 e0       	ldi	r25, 0x00	; 0
     898:	2c eb       	ldi	r18, 0xBC	; 188
     89a:	30 e0       	ldi	r19, 0x00	; 0
     89c:	f9 01       	movw	r30, r18
     89e:	20 81       	ld	r18, Z
     8a0:	20 68       	ori	r18, 0x80	; 128
     8a2:	fc 01       	movw	r30, r24
     8a4:	20 83       	st	Z, r18
}
     8a6:	cf 91       	pop	r28
     8a8:	df 91       	pop	r29
     8aa:	08 95       	ret

000008ac <I2C_sendSLAR>:

void I2C_sendSLAR()
{
     8ac:	df 93       	push	r29
     8ae:	cf 93       	push	r28
     8b0:	cd b7       	in	r28, 0x3d	; 61
     8b2:	de b7       	in	r29, 0x3e	; 62
	TWDR = (SLA<<1)|0b1;
     8b4:	8b eb       	ldi	r24, 0xBB	; 187
     8b6:	90 e0       	ldi	r25, 0x00	; 0
     8b8:	20 91 60 01 	lds	r18, 0x0160
     8bc:	22 2f       	mov	r18, r18
     8be:	30 e0       	ldi	r19, 0x00	; 0
     8c0:	22 0f       	add	r18, r18
     8c2:	33 1f       	adc	r19, r19
     8c4:	21 60       	ori	r18, 0x01	; 1
     8c6:	fc 01       	movw	r30, r24
     8c8:	20 83       	st	Z, r18
	TWCR &= ~((1<<TWSTA)|(1<<TWSTO));
     8ca:	8c eb       	ldi	r24, 0xBC	; 188
     8cc:	90 e0       	ldi	r25, 0x00	; 0
     8ce:	2c eb       	ldi	r18, 0xBC	; 188
     8d0:	30 e0       	ldi	r19, 0x00	; 0
     8d2:	f9 01       	movw	r30, r18
     8d4:	20 81       	ld	r18, Z
     8d6:	2f 7c       	andi	r18, 0xCF	; 207
     8d8:	fc 01       	movw	r30, r24
     8da:	20 83       	st	Z, r18
	TWCR |= (1<<TWINT);
     8dc:	8c eb       	ldi	r24, 0xBC	; 188
     8de:	90 e0       	ldi	r25, 0x00	; 0
     8e0:	2c eb       	ldi	r18, 0xBC	; 188
     8e2:	30 e0       	ldi	r19, 0x00	; 0
     8e4:	f9 01       	movw	r30, r18
     8e6:	20 81       	ld	r18, Z
     8e8:	20 68       	ori	r18, 0x80	; 128
     8ea:	fc 01       	movw	r30, r24
     8ec:	20 83       	st	Z, r18
}
     8ee:	cf 91       	pop	r28
     8f0:	df 91       	pop	r29
     8f2:	08 95       	ret

000008f4 <__vector_24>:

ISR(TWI_vect)
{
     8f4:	1f 92       	push	r1
     8f6:	0f 92       	push	r0
     8f8:	0f b6       	in	r0, 0x3f	; 63
     8fa:	0f 92       	push	r0
     8fc:	11 24       	eor	r1, r1
     8fe:	2f 93       	push	r18
     900:	3f 93       	push	r19
     902:	4f 93       	push	r20
     904:	5f 93       	push	r21
     906:	6f 93       	push	r22
     908:	7f 93       	push	r23
     90a:	8f 93       	push	r24
     90c:	9f 93       	push	r25
     90e:	af 93       	push	r26
     910:	bf 93       	push	r27
     912:	ef 93       	push	r30
     914:	ff 93       	push	r31
     916:	df 93       	push	r29
     918:	cf 93       	push	r28
     91a:	cd b7       	in	r28, 0x3d	; 61
     91c:	de b7       	in	r29, 0x3e	; 62
	SPI_statusCode = TWCR;
     91e:	8c eb       	ldi	r24, 0xBC	; 188
     920:	90 e0       	ldi	r25, 0x00	; 0
     922:	fc 01       	movw	r30, r24
     924:	80 81       	ld	r24, Z
     926:	80 93 5d 01 	sts	0x015D, r24
	I2C_function(SPI_statusCode);
     92a:	20 91 5e 01 	lds	r18, 0x015E
     92e:	30 91 5f 01 	lds	r19, 0x015F
     932:	80 91 5d 01 	lds	r24, 0x015D
     936:	f9 01       	movw	r30, r18
     938:	09 95       	icall
     93a:	cf 91       	pop	r28
     93c:	df 91       	pop	r29
     93e:	ff 91       	pop	r31
     940:	ef 91       	pop	r30
     942:	bf 91       	pop	r27
     944:	af 91       	pop	r26
     946:	9f 91       	pop	r25
     948:	8f 91       	pop	r24
     94a:	7f 91       	pop	r23
     94c:	6f 91       	pop	r22
     94e:	5f 91       	pop	r21
     950:	4f 91       	pop	r20
     952:	3f 91       	pop	r19
     954:	2f 91       	pop	r18
     956:	0f 90       	pop	r0
     958:	0f be       	out	0x3f, r0	; 63
     95a:	0f 90       	pop	r0
     95c:	1f 90       	pop	r1
     95e:	18 95       	reti

00000960 <_delayFourCycles>:

/*************************************************************************
 delay loop for small accurate delays: 16-bit counter, 4 cycles/loop
*************************************************************************/
static inline void _delayFourCycles(unsigned int __count)
{
     960:	df 93       	push	r29
     962:	cf 93       	push	r28
     964:	00 d0       	rcall	.+0      	; 0x966 <_delayFourCycles+0x6>
     966:	cd b7       	in	r28, 0x3d	; 61
     968:	de b7       	in	r29, 0x3e	; 62
     96a:	9a 83       	std	Y+2, r25	; 0x02
     96c:	89 83       	std	Y+1, r24	; 0x01
    if ( __count == 0 )    
     96e:	89 81       	ldd	r24, Y+1	; 0x01
     970:	9a 81       	ldd	r25, Y+2	; 0x02
     972:	00 97       	sbiw	r24, 0x00	; 0
     974:	11 f4       	brne	.+4      	; 0x97a <_delayFourCycles+0x1a>
        __asm__ __volatile__( "rjmp 1f\n 1:" );    // 2 cycles
     976:	00 c0       	rjmp	.+0      	; 0x978 <_delayFourCycles+0x18>
     978:	06 c0       	rjmp	.+12     	; 0x986 <_delayFourCycles+0x26>
    else
        __asm__ __volatile__ (
     97a:	89 81       	ldd	r24, Y+1	; 0x01
     97c:	9a 81       	ldd	r25, Y+2	; 0x02
     97e:	01 97       	sbiw	r24, 0x01	; 1
     980:	f1 f7       	brne	.-4      	; 0x97e <_delayFourCycles+0x1e>
     982:	9a 83       	std	Y+2, r25	; 0x02
     984:	89 83       	std	Y+1, r24	; 0x01
    	    "1: sbiw %0,1" "\n\t"                  
    	    "brne 1b"                              // 4 cycles/loop
    	    : "=w" (__count)
    	    : "0" (__count)
    	   );
}
     986:	0f 90       	pop	r0
     988:	0f 90       	pop	r0
     98a:	cf 91       	pop	r28
     98c:	df 91       	pop	r29
     98e:	08 95       	ret

00000990 <toggle_e>:


#if LCD_IO_MODE
/* toggle Enable Pin to initiate write */
static void toggle_e(void)
{
     990:	df 93       	push	r29
     992:	cf 93       	push	r28
     994:	cd b7       	in	r28, 0x3d	; 61
     996:	de b7       	in	r29, 0x3e	; 62
    lcd_e_high();
     998:	85 e2       	ldi	r24, 0x25	; 37
     99a:	90 e0       	ldi	r25, 0x00	; 0
     99c:	25 e2       	ldi	r18, 0x25	; 37
     99e:	30 e0       	ldi	r19, 0x00	; 0
     9a0:	f9 01       	movw	r30, r18
     9a2:	20 81       	ld	r18, Z
     9a4:	22 60       	ori	r18, 0x02	; 2
     9a6:	fc 01       	movw	r30, r24
     9a8:	20 83       	st	Z, r18
    lcd_e_delay();
     9aa:	00 c0       	rjmp	.+0      	; 0x9ac <toggle_e+0x1c>
    lcd_e_low();
     9ac:	85 e2       	ldi	r24, 0x25	; 37
     9ae:	90 e0       	ldi	r25, 0x00	; 0
     9b0:	25 e2       	ldi	r18, 0x25	; 37
     9b2:	30 e0       	ldi	r19, 0x00	; 0
     9b4:	f9 01       	movw	r30, r18
     9b6:	20 81       	ld	r18, Z
     9b8:	2d 7f       	andi	r18, 0xFD	; 253
     9ba:	fc 01       	movw	r30, r24
     9bc:	20 83       	st	Z, r18
}
     9be:	cf 91       	pop	r28
     9c0:	df 91       	pop	r29
     9c2:	08 95       	ret

000009c4 <lcd_write>:
                 0: write instruction
Returns:  none
*************************************************************************/
#if LCD_IO_MODE
static void lcd_write(uint8_t data,uint8_t rs) 
{
     9c4:	df 93       	push	r29
     9c6:	cf 93       	push	r28
     9c8:	00 d0       	rcall	.+0      	; 0x9ca <lcd_write+0x6>
     9ca:	0f 92       	push	r0
     9cc:	cd b7       	in	r28, 0x3d	; 61
     9ce:	de b7       	in	r29, 0x3e	; 62
     9d0:	8a 83       	std	Y+2, r24	; 0x02
     9d2:	6b 83       	std	Y+3, r22	; 0x03
    unsigned char dataBits ;
	

    if (rs) {   /* write data        (RS=1, RW=0) */
     9d4:	8b 81       	ldd	r24, Y+3	; 0x03
     9d6:	88 23       	and	r24, r24
     9d8:	51 f0       	breq	.+20     	; 0x9ee <lcd_write+0x2a>
       lcd_rs_high();
     9da:	8b e2       	ldi	r24, 0x2B	; 43
     9dc:	90 e0       	ldi	r25, 0x00	; 0
     9de:	2b e2       	ldi	r18, 0x2B	; 43
     9e0:	30 e0       	ldi	r19, 0x00	; 0
     9e2:	f9 01       	movw	r30, r18
     9e4:	20 81       	ld	r18, Z
     9e6:	20 68       	ori	r18, 0x80	; 128
     9e8:	fc 01       	movw	r30, r24
     9ea:	20 83       	st	Z, r18
     9ec:	09 c0       	rjmp	.+18     	; 0xa00 <lcd_write+0x3c>
    } else {    /* write instruction (RS=0, RW=0) */
       lcd_rs_low();
     9ee:	8b e2       	ldi	r24, 0x2B	; 43
     9f0:	90 e0       	ldi	r25, 0x00	; 0
     9f2:	2b e2       	ldi	r18, 0x2B	; 43
     9f4:	30 e0       	ldi	r19, 0x00	; 0
     9f6:	f9 01       	movw	r30, r18
     9f8:	20 81       	ld	r18, Z
     9fa:	2f 77       	andi	r18, 0x7F	; 127
     9fc:	fc 01       	movw	r30, r24
     9fe:	20 83       	st	Z, r18
    }
    lcd_rw_low();
     a00:	85 e2       	ldi	r24, 0x25	; 37
     a02:	90 e0       	ldi	r25, 0x00	; 0
     a04:	25 e2       	ldi	r18, 0x25	; 37
     a06:	30 e0       	ldi	r19, 0x00	; 0
     a08:	f9 01       	movw	r30, r18
     a0a:	20 81       	ld	r18, Z
     a0c:	2e 7f       	andi	r18, 0xFE	; 254
     a0e:	fc 01       	movw	r30, r24
     a10:	20 83       	st	Z, r18

    if ( ( &LCD_DATA0_PORT == &LCD_DATA1_PORT) && ( &LCD_DATA1_PORT == &LCD_DATA2_PORT ) && ( &LCD_DATA2_PORT == &LCD_DATA3_PORT )
      && (LCD_DATA0_PIN == 0) && (LCD_DATA1_PIN == 1) && (LCD_DATA2_PIN == 2) && (LCD_DATA3_PIN == 3) )
    {
        /* configure data pins as output */
        DDR(LCD_DATA0_PORT) |= 0x0F;
     a12:	87 e2       	ldi	r24, 0x27	; 39
     a14:	90 e0       	ldi	r25, 0x00	; 0
     a16:	27 e2       	ldi	r18, 0x27	; 39
     a18:	30 e0       	ldi	r19, 0x00	; 0
     a1a:	f9 01       	movw	r30, r18
     a1c:	20 81       	ld	r18, Z
     a1e:	2f 60       	ori	r18, 0x0F	; 15
     a20:	fc 01       	movw	r30, r24
     a22:	20 83       	st	Z, r18

        /* output high nibble first */
        dataBits = LCD_DATA0_PORT & 0xF0;
     a24:	88 e2       	ldi	r24, 0x28	; 40
     a26:	90 e0       	ldi	r25, 0x00	; 0
     a28:	fc 01       	movw	r30, r24
     a2a:	80 81       	ld	r24, Z
     a2c:	80 7f       	andi	r24, 0xF0	; 240
     a2e:	89 83       	std	Y+1, r24	; 0x01
        LCD_DATA0_PORT = dataBits |((data>>4)&0x0F);
     a30:	88 e2       	ldi	r24, 0x28	; 40
     a32:	90 e0       	ldi	r25, 0x00	; 0
     a34:	2a 81       	ldd	r18, Y+2	; 0x02
     a36:	22 95       	swap	r18
     a38:	2f 70       	andi	r18, 0x0F	; 15
     a3a:	32 2f       	mov	r19, r18
     a3c:	29 81       	ldd	r18, Y+1	; 0x01
     a3e:	23 2b       	or	r18, r19
     a40:	fc 01       	movw	r30, r24
     a42:	20 83       	st	Z, r18
        lcd_e_toggle();
     a44:	0e 94 c8 04 	call	0x990	; 0x990 <toggle_e>

        /* output low nibble */
        LCD_DATA0_PORT = dataBits | (data&0x0F);
     a48:	88 e2       	ldi	r24, 0x28	; 40
     a4a:	90 e0       	ldi	r25, 0x00	; 0
     a4c:	2a 81       	ldd	r18, Y+2	; 0x02
     a4e:	32 2f       	mov	r19, r18
     a50:	3f 70       	andi	r19, 0x0F	; 15
     a52:	29 81       	ldd	r18, Y+1	; 0x01
     a54:	23 2b       	or	r18, r19
     a56:	fc 01       	movw	r30, r24
     a58:	20 83       	st	Z, r18
        lcd_e_toggle();
     a5a:	0e 94 c8 04 	call	0x990	; 0x990 <toggle_e>

        /* all data pins high (inactive) */
        LCD_DATA0_PORT = dataBits | 0x0F;
     a5e:	88 e2       	ldi	r24, 0x28	; 40
     a60:	90 e0       	ldi	r25, 0x00	; 0
     a62:	29 81       	ldd	r18, Y+1	; 0x01
     a64:	2f 60       	ori	r18, 0x0F	; 15
     a66:	fc 01       	movw	r30, r24
     a68:	20 83       	st	Z, r18
        LCD_DATA0_PORT |= _BV(LCD_DATA0_PIN);
        LCD_DATA1_PORT |= _BV(LCD_DATA1_PIN);
        LCD_DATA2_PORT |= _BV(LCD_DATA2_PIN);
        LCD_DATA3_PORT |= _BV(LCD_DATA3_PIN);
    }
}
     a6a:	0f 90       	pop	r0
     a6c:	0f 90       	pop	r0
     a6e:	0f 90       	pop	r0
     a70:	cf 91       	pop	r28
     a72:	df 91       	pop	r29
     a74:	08 95       	ret

00000a76 <lcd_read>:
                 0: read busy flag / address counter
Returns:  byte read from LCD controller
*************************************************************************/
#if LCD_IO_MODE
static uint8_t lcd_read(uint8_t rs) 
{
     a76:	df 93       	push	r29
     a78:	cf 93       	push	r28
     a7a:	00 d0       	rcall	.+0      	; 0xa7c <lcd_read+0x6>
     a7c:	cd b7       	in	r28, 0x3d	; 61
     a7e:	de b7       	in	r29, 0x3e	; 62
     a80:	8a 83       	std	Y+2, r24	; 0x02
    uint8_t data;
    
    
    if (rs)
     a82:	8a 81       	ldd	r24, Y+2	; 0x02
     a84:	88 23       	and	r24, r24
     a86:	51 f0       	breq	.+20     	; 0xa9c <lcd_read+0x26>
        lcd_rs_high();                       /* RS=1: read data      */
     a88:	8b e2       	ldi	r24, 0x2B	; 43
     a8a:	90 e0       	ldi	r25, 0x00	; 0
     a8c:	2b e2       	ldi	r18, 0x2B	; 43
     a8e:	30 e0       	ldi	r19, 0x00	; 0
     a90:	f9 01       	movw	r30, r18
     a92:	20 81       	ld	r18, Z
     a94:	20 68       	ori	r18, 0x80	; 128
     a96:	fc 01       	movw	r30, r24
     a98:	20 83       	st	Z, r18
     a9a:	09 c0       	rjmp	.+18     	; 0xaae <lcd_read+0x38>
    else
        lcd_rs_low();                        /* RS=0: read busy flag */
     a9c:	8b e2       	ldi	r24, 0x2B	; 43
     a9e:	90 e0       	ldi	r25, 0x00	; 0
     aa0:	2b e2       	ldi	r18, 0x2B	; 43
     aa2:	30 e0       	ldi	r19, 0x00	; 0
     aa4:	f9 01       	movw	r30, r18
     aa6:	20 81       	ld	r18, Z
     aa8:	2f 77       	andi	r18, 0x7F	; 127
     aaa:	fc 01       	movw	r30, r24
     aac:	20 83       	st	Z, r18
    lcd_rw_high();                           /* RW=1  read mode      */
     aae:	85 e2       	ldi	r24, 0x25	; 37
     ab0:	90 e0       	ldi	r25, 0x00	; 0
     ab2:	25 e2       	ldi	r18, 0x25	; 37
     ab4:	30 e0       	ldi	r19, 0x00	; 0
     ab6:	f9 01       	movw	r30, r18
     ab8:	20 81       	ld	r18, Z
     aba:	21 60       	ori	r18, 0x01	; 1
     abc:	fc 01       	movw	r30, r24
     abe:	20 83       	st	Z, r18
    
    if ( ( &LCD_DATA0_PORT == &LCD_DATA1_PORT) && ( &LCD_DATA1_PORT == &LCD_DATA2_PORT ) && ( &LCD_DATA2_PORT == &LCD_DATA3_PORT )
      && ( LCD_DATA0_PIN == 0 )&& (LCD_DATA1_PIN == 1) && (LCD_DATA2_PIN == 2) && (LCD_DATA3_PIN == 3) )
    {
        DDR(LCD_DATA0_PORT) &= 0xF0;         /* configure data pins as input */
     ac0:	87 e2       	ldi	r24, 0x27	; 39
     ac2:	90 e0       	ldi	r25, 0x00	; 0
     ac4:	27 e2       	ldi	r18, 0x27	; 39
     ac6:	30 e0       	ldi	r19, 0x00	; 0
     ac8:	f9 01       	movw	r30, r18
     aca:	20 81       	ld	r18, Z
     acc:	20 7f       	andi	r18, 0xF0	; 240
     ace:	fc 01       	movw	r30, r24
     ad0:	20 83       	st	Z, r18
        
        lcd_e_high();
     ad2:	85 e2       	ldi	r24, 0x25	; 37
     ad4:	90 e0       	ldi	r25, 0x00	; 0
     ad6:	25 e2       	ldi	r18, 0x25	; 37
     ad8:	30 e0       	ldi	r19, 0x00	; 0
     ada:	f9 01       	movw	r30, r18
     adc:	20 81       	ld	r18, Z
     ade:	22 60       	ori	r18, 0x02	; 2
     ae0:	fc 01       	movw	r30, r24
     ae2:	20 83       	st	Z, r18
        lcd_e_delay();        
     ae4:	00 c0       	rjmp	.+0      	; 0xae6 <lcd_read+0x70>
        data = PIN(LCD_DATA0_PORT) << 4;     /* read high nibble first */
     ae6:	86 e2       	ldi	r24, 0x26	; 38
     ae8:	90 e0       	ldi	r25, 0x00	; 0
     aea:	fc 01       	movw	r30, r24
     aec:	80 81       	ld	r24, Z
     aee:	82 95       	swap	r24
     af0:	80 7f       	andi	r24, 0xF0	; 240
     af2:	89 83       	std	Y+1, r24	; 0x01
        lcd_e_low();
     af4:	85 e2       	ldi	r24, 0x25	; 37
     af6:	90 e0       	ldi	r25, 0x00	; 0
     af8:	25 e2       	ldi	r18, 0x25	; 37
     afa:	30 e0       	ldi	r19, 0x00	; 0
     afc:	f9 01       	movw	r30, r18
     afe:	20 81       	ld	r18, Z
     b00:	2d 7f       	andi	r18, 0xFD	; 253
     b02:	fc 01       	movw	r30, r24
     b04:	20 83       	st	Z, r18
        
        lcd_e_delay();                       /* Enable 500ns low       */
     b06:	00 c0       	rjmp	.+0      	; 0xb08 <lcd_read+0x92>
        
        lcd_e_high();
     b08:	85 e2       	ldi	r24, 0x25	; 37
     b0a:	90 e0       	ldi	r25, 0x00	; 0
     b0c:	25 e2       	ldi	r18, 0x25	; 37
     b0e:	30 e0       	ldi	r19, 0x00	; 0
     b10:	f9 01       	movw	r30, r18
     b12:	20 81       	ld	r18, Z
     b14:	22 60       	ori	r18, 0x02	; 2
     b16:	fc 01       	movw	r30, r24
     b18:	20 83       	st	Z, r18
        lcd_e_delay();
     b1a:	00 c0       	rjmp	.+0      	; 0xb1c <lcd_read+0xa6>
        data |= PIN(LCD_DATA0_PORT)&0x0F;    /* read low nibble        */
     b1c:	86 e2       	ldi	r24, 0x26	; 38
     b1e:	90 e0       	ldi	r25, 0x00	; 0
     b20:	fc 01       	movw	r30, r24
     b22:	80 81       	ld	r24, Z
     b24:	98 2f       	mov	r25, r24
     b26:	9f 70       	andi	r25, 0x0F	; 15
     b28:	89 81       	ldd	r24, Y+1	; 0x01
     b2a:	89 2b       	or	r24, r25
     b2c:	89 83       	std	Y+1, r24	; 0x01
        lcd_e_low();
     b2e:	85 e2       	ldi	r24, 0x25	; 37
     b30:	90 e0       	ldi	r25, 0x00	; 0
     b32:	25 e2       	ldi	r18, 0x25	; 37
     b34:	30 e0       	ldi	r19, 0x00	; 0
     b36:	f9 01       	movw	r30, r18
     b38:	20 81       	ld	r18, Z
     b3a:	2d 7f       	andi	r18, 0xFD	; 253
     b3c:	fc 01       	movw	r30, r24
     b3e:	20 83       	st	Z, r18
        if ( PIN(LCD_DATA1_PORT) & _BV(LCD_DATA1_PIN) ) data |= 0x02;
        if ( PIN(LCD_DATA2_PORT) & _BV(LCD_DATA2_PIN) ) data |= 0x04;
        if ( PIN(LCD_DATA3_PORT) & _BV(LCD_DATA3_PIN) ) data |= 0x08;        
        lcd_e_low();
    }
    return data;
     b40:	89 81       	ldd	r24, Y+1	; 0x01
}
     b42:	0f 90       	pop	r0
     b44:	0f 90       	pop	r0
     b46:	cf 91       	pop	r28
     b48:	df 91       	pop	r29
     b4a:	08 95       	ret

00000b4c <lcd_waitbusy>:
/*************************************************************************
loops while lcd is busy, returns address counter
*************************************************************************/

static uint8_t lcd_waitbusy(void)
{
     b4c:	1f 93       	push	r17
     b4e:	df 93       	push	r29
     b50:	cf 93       	push	r28
     b52:	cd b7       	in	r28, 0x3d	; 61
     b54:	de b7       	in	r29, 0x3e	; 62
    register uint8_t c;
	
    // wait until busy flag is cleared 
    while ( (c=lcd_read(0)) & (1<<LCD_BUSY)) {}
     b56:	80 e0       	ldi	r24, 0x00	; 0
     b58:	0e 94 3b 05 	call	0xa76	; 0xa76 <lcd_read>
     b5c:	18 2f       	mov	r17, r24
     b5e:	81 2f       	mov	r24, r17
     b60:	88 23       	and	r24, r24
     b62:	cc f3       	brlt	.-14     	; 0xb56 <lcd_waitbusy+0xa>
    
    // the address counter is updated 4us after the busy flag is cleared 
    delay(4);
     b64:	88 e0       	ldi	r24, 0x08	; 8
     b66:	90 e0       	ldi	r25, 0x00	; 0
     b68:	0e 94 b0 04 	call	0x960	; 0x960 <_delayFourCycles>

    // now read the address counter 
    return (lcd_read(0));  // return address counter
     b6c:	80 e0       	ldi	r24, 0x00	; 0
     b6e:	0e 94 3b 05 	call	0xa76	; 0xa76 <lcd_read>
    
}/* lcd_waitbusy */
     b72:	cf 91       	pop	r28
     b74:	df 91       	pop	r29
     b76:	1f 91       	pop	r17
     b78:	08 95       	ret

00000b7a <lcd_newline>:
Move cursor to the start of next line or to the first line if the cursor 
is already on the last line.
*************************************************************************/

static inline void lcd_newline(uint8_t pos)
{
     b7a:	1f 93       	push	r17
     b7c:	df 93       	push	r29
     b7e:	cf 93       	push	r28
     b80:	0f 92       	push	r0
     b82:	cd b7       	in	r28, 0x3d	; 61
     b84:	de b7       	in	r29, 0x3e	; 62
     b86:	89 83       	std	Y+1, r24	; 0x01

#if LCD_LINES==1
	addressCounter = 0;
#endif
#if LCD_LINES==2
    if ( pos < (LCD_START_LINE2) )
     b88:	89 81       	ldd	r24, Y+1	; 0x01
     b8a:	80 34       	cpi	r24, 0x40	; 64
     b8c:	10 f4       	brcc	.+4      	; 0xb92 <lcd_newline+0x18>
        addressCounter = LCD_START_LINE2;
     b8e:	10 e4       	ldi	r17, 0x40	; 64
     b90:	01 c0       	rjmp	.+2      	; 0xb94 <lcd_newline+0x1a>
    else
        addressCounter = LCD_START_LINE1;
     b92:	10 e0       	ldi	r17, 0x00	; 0
        addressCounter = LCD_START_LINE4;
    else 
        addressCounter = LCD_START_LINE1;
#endif
#endif
    lcd_command((1<<LCD_DDRAM)+addressCounter);
     b94:	81 2f       	mov	r24, r17
     b96:	80 58       	subi	r24, 0x80	; 128
     b98:	0e 94 d3 05 	call	0xba6	; 0xba6 <lcd_command>

}/* lcd_newline */
     b9c:	0f 90       	pop	r0
     b9e:	cf 91       	pop	r28
     ba0:	df 91       	pop	r29
     ba2:	1f 91       	pop	r17
     ba4:	08 95       	ret

00000ba6 <lcd_command>:
Input:   instruction to send to LCD controller, see HD44780 data sheet
Returns: none
*************************************************************************/

void lcd_command(uint8_t cmd)
{
     ba6:	df 93       	push	r29
     ba8:	cf 93       	push	r28
     baa:	0f 92       	push	r0
     bac:	cd b7       	in	r28, 0x3d	; 61
     bae:	de b7       	in	r29, 0x3e	; 62
     bb0:	89 83       	std	Y+1, r24	; 0x01
    lcd_waitbusy();
     bb2:	0e 94 a6 05 	call	0xb4c	; 0xb4c <lcd_waitbusy>
    lcd_write(cmd,0);
     bb6:	89 81       	ldd	r24, Y+1	; 0x01
     bb8:	60 e0       	ldi	r22, 0x00	; 0
     bba:	0e 94 e2 04 	call	0x9c4	; 0x9c4 <lcd_write>
}
     bbe:	0f 90       	pop	r0
     bc0:	cf 91       	pop	r28
     bc2:	df 91       	pop	r29
     bc4:	08 95       	ret

00000bc6 <lcd_gotoxy>:
Input:    x  horizontal position  (0: left most position)
          y  vertical position    (0: first line)
Returns:  none
*************************************************************************/
void lcd_gotoxy(uint8_t x, uint8_t y)
{
     bc6:	df 93       	push	r29
     bc8:	cf 93       	push	r28
     bca:	00 d0       	rcall	.+0      	; 0xbcc <lcd_gotoxy+0x6>
     bcc:	cd b7       	in	r28, 0x3d	; 61
     bce:	de b7       	in	r29, 0x3e	; 62
     bd0:	89 83       	std	Y+1, r24	; 0x01
     bd2:	6a 83       	std	Y+2, r22	; 0x02
#if LCD_LINES==1
    lcd_command((1<<LCD_DDRAM)+LCD_START_LINE1+x);
#endif
#if LCD_LINES==2
    if ( y==0 ) 
     bd4:	8a 81       	ldd	r24, Y+2	; 0x02
     bd6:	88 23       	and	r24, r24
     bd8:	29 f4       	brne	.+10     	; 0xbe4 <lcd_gotoxy+0x1e>
        lcd_command((1<<LCD_DDRAM)+LCD_START_LINE1+x);
     bda:	89 81       	ldd	r24, Y+1	; 0x01
     bdc:	80 58       	subi	r24, 0x80	; 128
     bde:	0e 94 d3 05 	call	0xba6	; 0xba6 <lcd_command>
     be2:	04 c0       	rjmp	.+8      	; 0xbec <lcd_gotoxy+0x26>
    else
        lcd_command((1<<LCD_DDRAM)+LCD_START_LINE2+x);
     be4:	89 81       	ldd	r24, Y+1	; 0x01
     be6:	80 54       	subi	r24, 0x40	; 64
     be8:	0e 94 d3 05 	call	0xba6	; 0xba6 <lcd_command>
        lcd_command((1<<LCD_DDRAM)+LCD_START_LINE3+x);
    else /* y==3 */
        lcd_command((1<<LCD_DDRAM)+LCD_START_LINE4+x);
#endif

}/* lcd_gotoxy */
     bec:	0f 90       	pop	r0
     bee:	0f 90       	pop	r0
     bf0:	cf 91       	pop	r28
     bf2:	df 91       	pop	r29
     bf4:	08 95       	ret

00000bf6 <lcd_clrscr>:

/*************************************************************************
Clear display and set cursor to home position
*************************************************************************/
void lcd_clrscr(void)
{
     bf6:	df 93       	push	r29
     bf8:	cf 93       	push	r28
     bfa:	cd b7       	in	r28, 0x3d	; 61
     bfc:	de b7       	in	r29, 0x3e	; 62
    lcd_command(1<<LCD_CLR);
     bfe:	81 e0       	ldi	r24, 0x01	; 1
     c00:	0e 94 d3 05 	call	0xba6	; 0xba6 <lcd_command>
}
     c04:	cf 91       	pop	r28
     c06:	df 91       	pop	r29
     c08:	08 95       	ret

00000c0a <lcd_putc>:
Input:    character to be displayed                                       
Returns:  none
*************************************************************************/

void lcd_putc(char c)
{
     c0a:	df 93       	push	r29
     c0c:	cf 93       	push	r28
     c0e:	00 d0       	rcall	.+0      	; 0xc10 <lcd_putc+0x6>
     c10:	cd b7       	in	r28, 0x3d	; 61
     c12:	de b7       	in	r29, 0x3e	; 62
     c14:	8a 83       	std	Y+2, r24	; 0x02
    uint8_t pos;


    pos = lcd_waitbusy();   // read busy-flag and address counter
     c16:	0e 94 a6 05 	call	0xb4c	; 0xb4c <lcd_waitbusy>
     c1a:	89 83       	std	Y+1, r24	; 0x01
    if (c=='\n')
     c1c:	8a 81       	ldd	r24, Y+2	; 0x02
     c1e:	8a 30       	cpi	r24, 0x0A	; 10
     c20:	21 f4       	brne	.+8      	; 0xc2a <lcd_putc+0x20>
    {
        lcd_newline(pos);
     c22:	89 81       	ldd	r24, Y+1	; 0x01
     c24:	0e 94 bd 05 	call	0xb7a	; 0xb7a <lcd_newline>
     c28:	04 c0       	rjmp	.+8      	; 0xc32 <lcd_putc+0x28>
            lcd_write((1<<LCD_DDRAM)+LCD_START_LINE1,0);
        }
#endif
        lcd_waitbusy();
#endif
        lcd_write(c, 1);
     c2a:	8a 81       	ldd	r24, Y+2	; 0x02
     c2c:	61 e0       	ldi	r22, 0x01	; 1
     c2e:	0e 94 e2 04 	call	0x9c4	; 0x9c4 <lcd_write>
    }

}/* lcd_putc */
     c32:	0f 90       	pop	r0
     c34:	0f 90       	pop	r0
     c36:	cf 91       	pop	r28
     c38:	df 91       	pop	r29
     c3a:	08 95       	ret

00000c3c <lcd_puts>:
Input:    string to be displayed
Returns:  none
*************************************************************************/
void lcd_puts(const char *s)
/* print string on lcd (no auto linefeed) */
{
     c3c:	1f 93       	push	r17
     c3e:	df 93       	push	r29
     c40:	cf 93       	push	r28
     c42:	00 d0       	rcall	.+0      	; 0xc44 <lcd_puts+0x8>
     c44:	cd b7       	in	r28, 0x3d	; 61
     c46:	de b7       	in	r29, 0x3e	; 62
     c48:	9a 83       	std	Y+2, r25	; 0x02
     c4a:	89 83       	std	Y+1, r24	; 0x01
    register char c;

    while ( (c = *s++) ) 
     c4c:	03 c0       	rjmp	.+6      	; 0xc54 <lcd_puts+0x18>
	{
        lcd_putc(c);
     c4e:	81 2f       	mov	r24, r17
     c50:	0e 94 05 06 	call	0xc0a	; 0xc0a <lcd_putc>
void lcd_puts(const char *s)
/* print string on lcd (no auto linefeed) */
{
    register char c;

    while ( (c = *s++) ) 
     c54:	89 81       	ldd	r24, Y+1	; 0x01
     c56:	9a 81       	ldd	r25, Y+2	; 0x02
     c58:	fc 01       	movw	r30, r24
     c5a:	10 81       	ld	r17, Z
     c5c:	21 e0       	ldi	r18, 0x01	; 1
     c5e:	11 23       	and	r17, r17
     c60:	09 f4       	brne	.+2      	; 0xc64 <lcd_puts+0x28>
     c62:	20 e0       	ldi	r18, 0x00	; 0
     c64:	89 81       	ldd	r24, Y+1	; 0x01
     c66:	9a 81       	ldd	r25, Y+2	; 0x02
     c68:	01 96       	adiw	r24, 0x01	; 1
     c6a:	9a 83       	std	Y+2, r25	; 0x02
     c6c:	89 83       	std	Y+1, r24	; 0x01
     c6e:	22 23       	and	r18, r18
     c70:	71 f7       	brne	.-36     	; 0xc4e <lcd_puts+0x12>
	{
        lcd_putc(c);
    }

}/* lcd_puts */
     c72:	0f 90       	pop	r0
     c74:	0f 90       	pop	r0
     c76:	cf 91       	pop	r28
     c78:	df 91       	pop	r29
     c7a:	1f 91       	pop	r17
     c7c:	08 95       	ret

00000c7e <lcd_puts_p>:
*************************************************************************/

void lcd_puts_p(const char *progmem_s)

// print string from program memory on lcd (no auto linefeed) 
{
     c7e:	1f 93       	push	r17
     c80:	df 93       	push	r29
     c82:	cf 93       	push	r28
     c84:	00 d0       	rcall	.+0      	; 0xc86 <lcd_puts_p+0x8>
     c86:	00 d0       	rcall	.+0      	; 0xc88 <lcd_puts_p+0xa>
     c88:	0f 92       	push	r0
     c8a:	cd b7       	in	r28, 0x3d	; 61
     c8c:	de b7       	in	r29, 0x3e	; 62
     c8e:	9d 83       	std	Y+5, r25	; 0x05
     c90:	8c 83       	std	Y+4, r24	; 0x04
    register char c;

    while ( (c = pgm_read_byte(progmem_s++)) ) {
     c92:	03 c0       	rjmp	.+6      	; 0xc9a <lcd_puts_p+0x1c>
        lcd_putc(c);
     c94:	81 2f       	mov	r24, r17
     c96:	0e 94 05 06 	call	0xc0a	; 0xc0a <lcd_putc>

// print string from program memory on lcd (no auto linefeed) 
{
    register char c;

    while ( (c = pgm_read_byte(progmem_s++)) ) {
     c9a:	8c 81       	ldd	r24, Y+4	; 0x04
     c9c:	9d 81       	ldd	r25, Y+5	; 0x05
     c9e:	9a 83       	std	Y+2, r25	; 0x02
     ca0:	89 83       	std	Y+1, r24	; 0x01
     ca2:	8c 81       	ldd	r24, Y+4	; 0x04
     ca4:	9d 81       	ldd	r25, Y+5	; 0x05
     ca6:	01 96       	adiw	r24, 0x01	; 1
     ca8:	9d 83       	std	Y+5, r25	; 0x05
     caa:	8c 83       	std	Y+4, r24	; 0x04
     cac:	89 81       	ldd	r24, Y+1	; 0x01
     cae:	9a 81       	ldd	r25, Y+2	; 0x02
     cb0:	fc 01       	movw	r30, r24
     cb2:	14 91       	lpm	r17, Z+
     cb4:	1b 83       	std	Y+3, r17	; 0x03
     cb6:	8b 81       	ldd	r24, Y+3	; 0x03
     cb8:	18 2f       	mov	r17, r24
     cba:	11 23       	and	r17, r17
     cbc:	59 f7       	brne	.-42     	; 0xc94 <lcd_puts_p+0x16>
        lcd_putc(c);
    }

}
     cbe:	0f 90       	pop	r0
     cc0:	0f 90       	pop	r0
     cc2:	0f 90       	pop	r0
     cc4:	0f 90       	pop	r0
     cc6:	0f 90       	pop	r0
     cc8:	cf 91       	pop	r28
     cca:	df 91       	pop	r29
     ccc:	1f 91       	pop	r17
     cce:	08 95       	ret

00000cd0 <lcd_init>:
                   LCD_DISP_ON_CURSOR      display on, cursor on
                   LCD_DISP_CURSOR_BLINK   display on, cursor on flashing
Returns:  none
*************************************************************************/
void lcd_init(uint8_t dispAttr)
{
     cd0:	df 93       	push	r29
     cd2:	cf 93       	push	r28
     cd4:	0f 92       	push	r0
     cd6:	cd b7       	in	r28, 0x3d	; 61
     cd8:	de b7       	in	r29, 0x3e	; 62
     cda:	89 83       	std	Y+1, r24	; 0x01
    }
    else if ( ( &LCD_DATA0_PORT == &LCD_DATA1_PORT) && ( &LCD_DATA1_PORT == &LCD_DATA2_PORT ) && ( &LCD_DATA2_PORT == &LCD_DATA3_PORT )
           && (LCD_DATA0_PIN == 0 ) && (LCD_DATA1_PIN == 1) && (LCD_DATA2_PIN == 2) && (LCD_DATA3_PIN == 3) )
    {
        /* configure all port bits as output (all LCD data lines on same port, but control lines on different ports) */
		DDR(LCD_DATA0_PORT) |= 0x0F;
     cdc:	87 e2       	ldi	r24, 0x27	; 39
     cde:	90 e0       	ldi	r25, 0x00	; 0
     ce0:	27 e2       	ldi	r18, 0x27	; 39
     ce2:	30 e0       	ldi	r19, 0x00	; 0
     ce4:	f9 01       	movw	r30, r18
     ce6:	20 81       	ld	r18, Z
     ce8:	2f 60       	ori	r18, 0x0F	; 15
     cea:	fc 01       	movw	r30, r24
     cec:	20 83       	st	Z, r18
		DDR(LCD_RS_PORT)    |= (1<<LCD_RS_PIN);
     cee:	8a e2       	ldi	r24, 0x2A	; 42
     cf0:	90 e0       	ldi	r25, 0x00	; 0
     cf2:	2a e2       	ldi	r18, 0x2A	; 42
     cf4:	30 e0       	ldi	r19, 0x00	; 0
     cf6:	f9 01       	movw	r30, r18
     cf8:	20 81       	ld	r18, Z
     cfa:	20 68       	ori	r18, 0x80	; 128
     cfc:	fc 01       	movw	r30, r24
     cfe:	20 83       	st	Z, r18
        DDR(LCD_RW_PORT)    |= (1<<LCD_RW_PIN);
     d00:	84 e2       	ldi	r24, 0x24	; 36
     d02:	90 e0       	ldi	r25, 0x00	; 0
     d04:	24 e2       	ldi	r18, 0x24	; 36
     d06:	30 e0       	ldi	r19, 0x00	; 0
     d08:	f9 01       	movw	r30, r18
     d0a:	20 81       	ld	r18, Z
     d0c:	21 60       	ori	r18, 0x01	; 1
     d0e:	fc 01       	movw	r30, r24
     d10:	20 83       	st	Z, r18
        DDR(LCD_E_PORT)     |= (1<<LCD_E_PIN);
     d12:	84 e2       	ldi	r24, 0x24	; 36
     d14:	90 e0       	ldi	r25, 0x00	; 0
     d16:	24 e2       	ldi	r18, 0x24	; 36
     d18:	30 e0       	ldi	r19, 0x00	; 0
     d1a:	f9 01       	movw	r30, r18
     d1c:	20 81       	ld	r18, Z
     d1e:	22 60       	ori	r18, 0x02	; 2
     d20:	fc 01       	movw	r30, r24
     d22:	20 83       	st	Z, r18
        DDR(LCD_DATA0_PORT) |= _BV(LCD_DATA0_PIN);
        DDR(LCD_DATA1_PORT) |= _BV(LCD_DATA1_PIN);
        DDR(LCD_DATA2_PORT) |= _BV(LCD_DATA2_PIN);
        DDR(LCD_DATA3_PORT) |= _BV(LCD_DATA3_PIN);
    }
    delay(16000);        /* wait 16ms or more after power-on       */
     d24:	80 e0       	ldi	r24, 0x00	; 0
     d26:	9d e7       	ldi	r25, 0x7D	; 125
     d28:	0e 94 b0 04 	call	0x960	; 0x960 <_delayFourCycles>
    
    /* initial write to lcd is 8bit */
    LCD_DATA1_PORT |= _BV(LCD_DATA1_PIN);  // _BV(LCD_FUNCTION)>>4;
     d2c:	88 e2       	ldi	r24, 0x28	; 40
     d2e:	90 e0       	ldi	r25, 0x00	; 0
     d30:	28 e2       	ldi	r18, 0x28	; 40
     d32:	30 e0       	ldi	r19, 0x00	; 0
     d34:	f9 01       	movw	r30, r18
     d36:	20 81       	ld	r18, Z
     d38:	22 60       	ori	r18, 0x02	; 2
     d3a:	fc 01       	movw	r30, r24
     d3c:	20 83       	st	Z, r18
    LCD_DATA0_PORT |= _BV(LCD_DATA0_PIN);  // _BV(LCD_FUNCTION_8BIT)>>4;
     d3e:	88 e2       	ldi	r24, 0x28	; 40
     d40:	90 e0       	ldi	r25, 0x00	; 0
     d42:	28 e2       	ldi	r18, 0x28	; 40
     d44:	30 e0       	ldi	r19, 0x00	; 0
     d46:	f9 01       	movw	r30, r18
     d48:	20 81       	ld	r18, Z
     d4a:	21 60       	ori	r18, 0x01	; 1
     d4c:	fc 01       	movw	r30, r24
     d4e:	20 83       	st	Z, r18
    lcd_e_toggle();
     d50:	0e 94 c8 04 	call	0x990	; 0x990 <toggle_e>
    delay(4992);         /* delay, busy flag can't be checked here */
     d54:	80 e0       	ldi	r24, 0x00	; 0
     d56:	97 e2       	ldi	r25, 0x27	; 39
     d58:	0e 94 b0 04 	call	0x960	; 0x960 <_delayFourCycles>
   
    /* repeat last command */ 
    lcd_e_toggle();      
     d5c:	0e 94 c8 04 	call	0x990	; 0x990 <toggle_e>
    delay(64);           /* delay, busy flag can't be checked here */
     d60:	80 e8       	ldi	r24, 0x80	; 128
     d62:	90 e0       	ldi	r25, 0x00	; 0
     d64:	0e 94 b0 04 	call	0x960	; 0x960 <_delayFourCycles>
    
    /* repeat last command a third time */
    lcd_e_toggle();      
     d68:	0e 94 c8 04 	call	0x990	; 0x990 <toggle_e>
    delay(64);           /* delay, busy flag can't be checked here */
     d6c:	80 e8       	ldi	r24, 0x80	; 128
     d6e:	90 e0       	ldi	r25, 0x00	; 0
     d70:	0e 94 b0 04 	call	0x960	; 0x960 <_delayFourCycles>

    /* now configure for 4bit mode */
    LCD_DATA0_PORT &= ~_BV(LCD_DATA0_PIN);   // LCD_FUNCTION_4BIT_1LINE>>4
     d74:	88 e2       	ldi	r24, 0x28	; 40
     d76:	90 e0       	ldi	r25, 0x00	; 0
     d78:	28 e2       	ldi	r18, 0x28	; 40
     d7a:	30 e0       	ldi	r19, 0x00	; 0
     d7c:	f9 01       	movw	r30, r18
     d7e:	20 81       	ld	r18, Z
     d80:	2e 7f       	andi	r18, 0xFE	; 254
     d82:	fc 01       	movw	r30, r24
     d84:	20 83       	st	Z, r18
    lcd_e_toggle();
     d86:	0e 94 c8 04 	call	0x990	; 0x990 <toggle_e>
    delay(64);           /* some displays need this additional delay */
     d8a:	80 e8       	ldi	r24, 0x80	; 128
     d8c:	90 e0       	ldi	r25, 0x00	; 0
     d8e:	0e 94 b0 04 	call	0x960	; 0x960 <_delayFourCycles>
    /* Display with KS0073 controller requires special commands for enabling 4 line mode */
	lcd_command(KS0073_EXTENDED_FUNCTION_REGISTER_ON);
	lcd_command(KS0073_4LINES_MODE);
	lcd_command(KS0073_EXTENDED_FUNCTION_REGISTER_OFF);
#else
    lcd_command(LCD_FUNCTION_DEFAULT);      /* function set: display lines  */
     d92:	88 e2       	ldi	r24, 0x28	; 40
     d94:	0e 94 d3 05 	call	0xba6	; 0xba6 <lcd_command>
#endif
    lcd_command(LCD_DISP_OFF);              /* display off                  */
     d98:	88 e0       	ldi	r24, 0x08	; 8
     d9a:	0e 94 d3 05 	call	0xba6	; 0xba6 <lcd_command>
    lcd_clrscr();                           /* display clear                */ 
     d9e:	0e 94 fb 05 	call	0xbf6	; 0xbf6 <lcd_clrscr>
    lcd_command(LCD_MODE_DEFAULT);          /* set entry mode               */
     da2:	86 e0       	ldi	r24, 0x06	; 6
     da4:	0e 94 d3 05 	call	0xba6	; 0xba6 <lcd_command>
    lcd_command(dispAttr);                  /* display/cursor control       */
     da8:	89 81       	ldd	r24, Y+1	; 0x01
     daa:	0e 94 d3 05 	call	0xba6	; 0xba6 <lcd_command>

}/* lcd_init */
     dae:	0f 90       	pop	r0
     db0:	cf 91       	pop	r28
     db2:	df 91       	pop	r29
     db4:	08 95       	ret

00000db6 <main>:
uint32_t pwmDCpourMille = 0;
unsigned char PWM_DC = 127;

// MAIN
int main(void)
{	
     db6:	df 93       	push	r29
     db8:	cf 93       	push	r28
     dba:	cd b7       	in	r28, 0x3d	; 61
     dbc:	de b7       	in	r29, 0x3e	; 62
	I2C_init(100);
     dbe:	84 e6       	ldi	r24, 0x64	; 100
     dc0:	90 e0       	ldi	r25, 0x00	; 0
     dc2:	0e 94 a2 03 	call	0x744	; 0x744 <I2C_init>
	I2C_start();
     dc6:	0e 94 e3 03 	call	0x7c6	; 0x7c6 <I2C_start>
	//EEPROM_writeByte(0x55,EEPROM_ADDR,0);
	while(1);
     dca:	ff cf       	rjmp	.-2      	; 0xdca <main+0x14>

00000dcc <st_welcome>:
	return 1;
}

// main menu
char st_welcome(char input)
{
     dcc:	df 93       	push	r29
     dce:	cf 93       	push	r28
     dd0:	cd b7       	in	r28, 0x3d	; 61
     dd2:	de b7       	in	r29, 0x3e	; 62
     dd4:	66 97       	sbiw	r28, 0x16	; 22
     dd6:	0f b6       	in	r0, 0x3f	; 63
     dd8:	f8 94       	cli
     dda:	de bf       	out	0x3e, r29	; 62
     ddc:	0f be       	out	0x3f, r0	; 63
     dde:	cd bf       	out	0x3d, r28	; 61
     de0:	8e 8b       	std	Y+22, r24	; 0x16
	static BOOL first_run = TRUE;
	static int32_t oldTmp=0;
	int32_t tmp = 0;
     de2:	19 82       	std	Y+1, r1	; 0x01
     de4:	1a 82       	std	Y+2, r1	; 0x02
     de6:	1b 82       	std	Y+3, r1	; 0x03
     de8:	1c 82       	std	Y+4, r1	; 0x04
	tmp = MAX_getTemp();
     dea:	0e 94 7d 09 	call	0x12fa	; 0x12fa <MAX_getTemp>
     dee:	aa 27       	eor	r26, r26
     df0:	97 fd       	sbrc	r25, 7
     df2:	a0 95       	com	r26
     df4:	ba 2f       	mov	r27, r26
     df6:	89 83       	std	Y+1, r24	; 0x01
     df8:	9a 83       	std	Y+2, r25	; 0x02
     dfa:	ab 83       	std	Y+3, r26	; 0x03
     dfc:	bc 83       	std	Y+4, r27	; 0x04
	
	if(first_run==TRUE)
     dfe:	80 91 15 01 	lds	r24, 0x0115
     e02:	81 30       	cpi	r24, 0x01	; 1
     e04:	19 f4       	brne	.+6      	; 0xe0c <st_welcome+0x40>
	{
		first_run=FALSE;
     e06:	10 92 15 01 	sts	0x0115, r1
     e0a:	52 c0       	rjmp	.+164    	; 0xeb0 <st_welcome+0xe4>
	}		
	else if(tmp!=oldTmp)
     e0c:	80 91 4c 01 	lds	r24, 0x014C
     e10:	90 91 4d 01 	lds	r25, 0x014D
     e14:	a0 91 4e 01 	lds	r26, 0x014E
     e18:	b0 91 4f 01 	lds	r27, 0x014F
     e1c:	29 81       	ldd	r18, Y+1	; 0x01
     e1e:	3a 81       	ldd	r19, Y+2	; 0x02
     e20:	4b 81       	ldd	r20, Y+3	; 0x03
     e22:	5c 81       	ldd	r21, Y+4	; 0x04
     e24:	28 17       	cp	r18, r24
     e26:	39 07       	cpc	r19, r25
     e28:	4a 07       	cpc	r20, r26
     e2a:	5b 07       	cpc	r21, r27
     e2c:	09 f4       	brne	.+2      	; 0xe30 <st_welcome+0x64>
     e2e:	40 c0       	rjmp	.+128    	; 0xeb0 <st_welcome+0xe4>
	{
		char msg[16];
		
		cli();
     e30:	f8 94       	cli
		lcd_clrscr();
     e32:	0e 94 fb 05 	call	0xbf6	; 0xbf6 <lcd_clrscr>
		lcd_gotoxy(0,0);
     e36:	80 e0       	ldi	r24, 0x00	; 0
     e38:	60 e0       	ldi	r22, 0x00	; 0
     e3a:	0e 94 e3 05 	call	0xbc6	; 0xbc6 <lcd_gotoxy>
		lcd_puts_p(ST_WELCOME_TXT);
     e3e:	8f e6       	ldi	r24, 0x6F	; 111
     e40:	90 e0       	ldi	r25, 0x00	; 0
     e42:	0e 94 3f 06 	call	0xc7e	; 0xc7e <lcd_puts_p>
		lcd_gotoxy(0,1);
     e46:	80 e0       	ldi	r24, 0x00	; 0
     e48:	61 e0       	ldi	r22, 0x01	; 1
     e4a:	0e 94 e3 05 	call	0xbc6	; 0xbc6 <lcd_gotoxy>
		sprintf(msg,"%d 'C",(int)tmp);
     e4e:	29 81       	ldd	r18, Y+1	; 0x01
     e50:	3a 81       	ldd	r19, Y+2	; 0x02
     e52:	00 d0       	rcall	.+0      	; 0xe54 <st_welcome+0x88>
     e54:	00 d0       	rcall	.+0      	; 0xe56 <st_welcome+0x8a>
     e56:	00 d0       	rcall	.+0      	; 0xe58 <st_welcome+0x8c>
     e58:	8d b7       	in	r24, 0x3d	; 61
     e5a:	9e b7       	in	r25, 0x3e	; 62
     e5c:	01 96       	adiw	r24, 0x01	; 1
     e5e:	ae 01       	movw	r20, r28
     e60:	4a 5f       	subi	r20, 0xFA	; 250
     e62:	5f 4f       	sbci	r21, 0xFF	; 255
     e64:	fc 01       	movw	r30, r24
     e66:	51 83       	std	Z+1, r21	; 0x01
     e68:	40 83       	st	Z, r20
     e6a:	43 e0       	ldi	r20, 0x03	; 3
     e6c:	51 e0       	ldi	r21, 0x01	; 1
     e6e:	fc 01       	movw	r30, r24
     e70:	53 83       	std	Z+3, r21	; 0x03
     e72:	42 83       	std	Z+2, r20	; 0x02
     e74:	fc 01       	movw	r30, r24
     e76:	35 83       	std	Z+5, r19	; 0x05
     e78:	24 83       	std	Z+4, r18	; 0x04
     e7a:	0e 94 1e 0f 	call	0x1e3c	; 0x1e3c <sprintf>
     e7e:	8d b7       	in	r24, 0x3d	; 61
     e80:	9e b7       	in	r25, 0x3e	; 62
     e82:	06 96       	adiw	r24, 0x06	; 6
     e84:	0f b6       	in	r0, 0x3f	; 63
     e86:	f8 94       	cli
     e88:	9e bf       	out	0x3e, r25	; 62
     e8a:	0f be       	out	0x3f, r0	; 63
     e8c:	8d bf       	out	0x3d, r24	; 61
		lcd_puts(msg);
     e8e:	ce 01       	movw	r24, r28
     e90:	06 96       	adiw	r24, 0x06	; 6
     e92:	0e 94 1e 06 	call	0xc3c	; 0xc3c <lcd_puts>
		sei();
     e96:	78 94       	sei
		oldTmp=tmp;
     e98:	89 81       	ldd	r24, Y+1	; 0x01
     e9a:	9a 81       	ldd	r25, Y+2	; 0x02
     e9c:	ab 81       	ldd	r26, Y+3	; 0x03
     e9e:	bc 81       	ldd	r27, Y+4	; 0x04
     ea0:	80 93 4c 01 	sts	0x014C, r24
     ea4:	90 93 4d 01 	sts	0x014D, r25
     ea8:	a0 93 4e 01 	sts	0x014E, r26
     eac:	b0 93 4f 01 	sts	0x014F, r27
	}
	
	unsigned char nextstate = OS_stateMachine(OS_CURRENT_STATE, input);
     eb0:	80 91 75 01 	lds	r24, 0x0175
     eb4:	6e 89       	ldd	r22, Y+22	; 0x16
     eb6:	0e 94 02 0b 	call	0x1604	; 0x1604 <OS_stateMachine>
     eba:	8d 83       	std	Y+5, r24	; 0x05
	if (nextstate!=OS_CURRENT_STATE) // Si on quitte l'tat
     ebc:	80 91 75 01 	lds	r24, 0x0175
     ec0:	9d 81       	ldd	r25, Y+5	; 0x05
     ec2:	98 17       	cp	r25, r24
     ec4:	19 f0       	breq	.+6      	; 0xecc <st_welcome+0x100>
		first_run=TRUE;
     ec6:	81 e0       	ldi	r24, 0x01	; 1
     ec8:	80 93 15 01 	sts	0x0115, r24
	return nextstate;
     ecc:	8d 81       	ldd	r24, Y+5	; 0x05
}
     ece:	66 96       	adiw	r28, 0x16	; 22
     ed0:	0f b6       	in	r0, 0x3f	; 63
     ed2:	f8 94       	cli
     ed4:	de bf       	out	0x3e, r29	; 62
     ed6:	0f be       	out	0x3f, r0	; 63
     ed8:	cd bf       	out	0x3d, r28	; 61
     eda:	cf 91       	pop	r28
     edc:	df 91       	pop	r29
     ede:	08 95       	ret

00000ee0 <st_temp_pts>:
char st_temp_pts(char input)
{
     ee0:	df 93       	push	r29
     ee2:	cf 93       	push	r28
     ee4:	00 d0       	rcall	.+0      	; 0xee6 <st_temp_pts+0x6>
     ee6:	cd b7       	in	r28, 0x3d	; 61
     ee8:	de b7       	in	r29, 0x3e	; 62
     eea:	8a 83       	std	Y+2, r24	; 0x02
	static BOOL first_run = TRUE;
	
	

	unsigned char nextstate = OS_stateMachine(OS_CURRENT_STATE, input);
     eec:	80 91 75 01 	lds	r24, 0x0175
     ef0:	6a 81       	ldd	r22, Y+2	; 0x02
     ef2:	0e 94 02 0b 	call	0x1604	; 0x1604 <OS_stateMachine>
     ef6:	89 83       	std	Y+1, r24	; 0x01
	if (nextstate!=OS_CURRENT_STATE) // Si on quitte l'tat
     ef8:	80 91 75 01 	lds	r24, 0x0175
     efc:	99 81       	ldd	r25, Y+1	; 0x01
     efe:	98 17       	cp	r25, r24
     f00:	19 f0       	breq	.+6      	; 0xf08 <st_temp_pts+0x28>
		first_run=TRUE;
     f02:	81 e0       	ldi	r24, 0x01	; 1
     f04:	80 93 14 01 	sts	0x0114, r24
	return nextstate;
     f08:	89 81       	ldd	r24, Y+1	; 0x01
}
     f0a:	0f 90       	pop	r0
     f0c:	0f 90       	pop	r0
     f0e:	cf 91       	pop	r28
     f10:	df 91       	pop	r29
     f12:	08 95       	ret

00000f14 <st_profiles>:
char st_profiles(char input)
{
     f14:	df 93       	push	r29
     f16:	cf 93       	push	r28
     f18:	00 d0       	rcall	.+0      	; 0xf1a <st_profiles+0x6>
     f1a:	cd b7       	in	r28, 0x3d	; 61
     f1c:	de b7       	in	r29, 0x3e	; 62
     f1e:	8a 83       	std	Y+2, r24	; 0x02
	static BOOL first_run = TRUE;
	
	
	
	unsigned char nextstate = OS_stateMachine(OS_CURRENT_STATE, input);
     f20:	80 91 75 01 	lds	r24, 0x0175
     f24:	6a 81       	ldd	r22, Y+2	; 0x02
     f26:	0e 94 02 0b 	call	0x1604	; 0x1604 <OS_stateMachine>
     f2a:	89 83       	std	Y+1, r24	; 0x01
	if (nextstate!=OS_CURRENT_STATE) // Si on quitte l'tat
     f2c:	80 91 75 01 	lds	r24, 0x0175
     f30:	99 81       	ldd	r25, Y+1	; 0x01
     f32:	98 17       	cp	r25, r24
     f34:	19 f0       	breq	.+6      	; 0xf3c <st_profiles+0x28>
		first_run=TRUE;
     f36:	81 e0       	ldi	r24, 0x01	; 1
     f38:	80 93 13 01 	sts	0x0113, r24
	return nextstate;
     f3c:	89 81       	ldd	r24, Y+1	; 0x01
}
     f3e:	0f 90       	pop	r0
     f40:	0f 90       	pop	r0
     f42:	cf 91       	pop	r28
     f44:	df 91       	pop	r29
     f46:	08 95       	ret

00000f48 <st_profiles_save>:
char st_profiles_save(char input)
{
     f48:	df 93       	push	r29
     f4a:	cf 93       	push	r28
     f4c:	00 d0       	rcall	.+0      	; 0xf4e <st_profiles_save+0x6>
     f4e:	cd b7       	in	r28, 0x3d	; 61
     f50:	de b7       	in	r29, 0x3e	; 62
     f52:	8a 83       	std	Y+2, r24	; 0x02
	static BOOL first_run = TRUE;
	
	
	
	unsigned char nextstate = OS_stateMachine(OS_CURRENT_STATE, input);
     f54:	80 91 75 01 	lds	r24, 0x0175
     f58:	6a 81       	ldd	r22, Y+2	; 0x02
     f5a:	0e 94 02 0b 	call	0x1604	; 0x1604 <OS_stateMachine>
     f5e:	89 83       	std	Y+1, r24	; 0x01
	if (nextstate!=OS_CURRENT_STATE) // Si on quitte l'tat
     f60:	80 91 75 01 	lds	r24, 0x0175
     f64:	99 81       	ldd	r25, Y+1	; 0x01
     f66:	98 17       	cp	r25, r24
     f68:	19 f0       	breq	.+6      	; 0xf70 <st_profiles_save+0x28>
		first_run=TRUE;
     f6a:	81 e0       	ldi	r24, 0x01	; 1
     f6c:	80 93 12 01 	sts	0x0112, r24
	return nextstate;
     f70:	89 81       	ldd	r24, Y+1	; 0x01
}
     f72:	0f 90       	pop	r0
     f74:	0f 90       	pop	r0
     f76:	cf 91       	pop	r28
     f78:	df 91       	pop	r29
     f7a:	08 95       	ret

00000f7c <st_profiles_load>:
char st_profiles_load(char input)
{
     f7c:	df 93       	push	r29
     f7e:	cf 93       	push	r28
     f80:	00 d0       	rcall	.+0      	; 0xf82 <st_profiles_load+0x6>
     f82:	cd b7       	in	r28, 0x3d	; 61
     f84:	de b7       	in	r29, 0x3e	; 62
     f86:	8a 83       	std	Y+2, r24	; 0x02
	static BOOL first_run = TRUE;
	
	
	
	unsigned char nextstate = OS_stateMachine(OS_CURRENT_STATE, input);
     f88:	80 91 75 01 	lds	r24, 0x0175
     f8c:	6a 81       	ldd	r22, Y+2	; 0x02
     f8e:	0e 94 02 0b 	call	0x1604	; 0x1604 <OS_stateMachine>
     f92:	89 83       	std	Y+1, r24	; 0x01
	if (nextstate!=OS_CURRENT_STATE) // Si on quitte l'tat
     f94:	80 91 75 01 	lds	r24, 0x0175
     f98:	99 81       	ldd	r25, Y+1	; 0x01
     f9a:	98 17       	cp	r25, r24
     f9c:	19 f0       	breq	.+6      	; 0xfa4 <st_profiles_load+0x28>
		first_run=TRUE;
     f9e:	81 e0       	ldi	r24, 0x01	; 1
     fa0:	80 93 11 01 	sts	0x0111, r24
	return nextstate;
     fa4:	89 81       	ldd	r24, Y+1	; 0x01
}
     fa6:	0f 90       	pop	r0
     fa8:	0f 90       	pop	r0
     faa:	cf 91       	pop	r28
     fac:	df 91       	pop	r29
     fae:	08 95       	ret

00000fb0 <st_run>:
char st_run(char input)
{
     fb0:	df 93       	push	r29
     fb2:	cf 93       	push	r28
     fb4:	00 d0       	rcall	.+0      	; 0xfb6 <st_run+0x6>
     fb6:	cd b7       	in	r28, 0x3d	; 61
     fb8:	de b7       	in	r29, 0x3e	; 62
     fba:	8a 83       	std	Y+2, r24	; 0x02
	static BOOL first_run = TRUE;
	
	
	
	unsigned char nextstate = OS_stateMachine(OS_CURRENT_STATE, input);
     fbc:	80 91 75 01 	lds	r24, 0x0175
     fc0:	6a 81       	ldd	r22, Y+2	; 0x02
     fc2:	0e 94 02 0b 	call	0x1604	; 0x1604 <OS_stateMachine>
     fc6:	89 83       	std	Y+1, r24	; 0x01
	if (nextstate!=OS_CURRENT_STATE) // Si on quitte l'tat
     fc8:	80 91 75 01 	lds	r24, 0x0175
     fcc:	99 81       	ldd	r25, Y+1	; 0x01
     fce:	98 17       	cp	r25, r24
     fd0:	19 f0       	breq	.+6      	; 0xfd8 <st_run+0x28>
		first_run=TRUE;
     fd2:	81 e0       	ldi	r24, 0x01	; 1
     fd4:	80 93 10 01 	sts	0x0110, r24
	return nextstate;
     fd8:	89 81       	ldd	r24, Y+1	; 0x01
}
     fda:	0f 90       	pop	r0
     fdc:	0f 90       	pop	r0
     fde:	cf 91       	pop	r28
     fe0:	df 91       	pop	r29
     fe2:	08 95       	ret

00000fe4 <st_manual>:

// manual menu
char st_manual(char input)
{
     fe4:	df 93       	push	r29
     fe6:	cf 93       	push	r28
     fe8:	00 d0       	rcall	.+0      	; 0xfea <st_manual+0x6>
     fea:	cd b7       	in	r28, 0x3d	; 61
     fec:	de b7       	in	r29, 0x3e	; 62
     fee:	8a 83       	std	Y+2, r24	; 0x02
	static BOOL first_run = TRUE;
	
	
	
	unsigned char nextstate = OS_stateMachine(OS_CURRENT_STATE, input);
     ff0:	80 91 75 01 	lds	r24, 0x0175
     ff4:	6a 81       	ldd	r22, Y+2	; 0x02
     ff6:	0e 94 02 0b 	call	0x1604	; 0x1604 <OS_stateMachine>
     ffa:	89 83       	std	Y+1, r24	; 0x01
	if (nextstate!=OS_CURRENT_STATE) // Si on quitte l'tat
     ffc:	80 91 75 01 	lds	r24, 0x0175
    1000:	99 81       	ldd	r25, Y+1	; 0x01
    1002:	98 17       	cp	r25, r24
    1004:	19 f0       	breq	.+6      	; 0x100c <st_manual+0x28>
		first_run=TRUE;
    1006:	81 e0       	ldi	r24, 0x01	; 1
    1008:	80 93 0f 01 	sts	0x010F, r24
	return nextstate;
    100c:	89 81       	ldd	r24, Y+1	; 0x01
}
    100e:	0f 90       	pop	r0
    1010:	0f 90       	pop	r0
    1012:	cf 91       	pop	r28
    1014:	df 91       	pop	r29
    1016:	08 95       	ret

00001018 <st_manual_temp>:
char st_manual_temp(char input)
{
    1018:	df 93       	push	r29
    101a:	cf 93       	push	r28
    101c:	00 d0       	rcall	.+0      	; 0x101e <st_manual_temp+0x6>
    101e:	cd b7       	in	r28, 0x3d	; 61
    1020:	de b7       	in	r29, 0x3e	; 62
    1022:	8a 83       	std	Y+2, r24	; 0x02
	static BOOL first_run = TRUE;
	
	
	
	unsigned char nextstate = OS_stateMachine(OS_CURRENT_STATE, input);
    1024:	80 91 75 01 	lds	r24, 0x0175
    1028:	6a 81       	ldd	r22, Y+2	; 0x02
    102a:	0e 94 02 0b 	call	0x1604	; 0x1604 <OS_stateMachine>
    102e:	89 83       	std	Y+1, r24	; 0x01
	if (nextstate!=OS_CURRENT_STATE) // Si on quitte l'tat
    1030:	80 91 75 01 	lds	r24, 0x0175
    1034:	99 81       	ldd	r25, Y+1	; 0x01
    1036:	98 17       	cp	r25, r24
    1038:	19 f0       	breq	.+6      	; 0x1040 <st_manual_temp+0x28>
		first_run=TRUE;
    103a:	81 e0       	ldi	r24, 0x01	; 1
    103c:	80 93 0e 01 	sts	0x010E, r24
	return nextstate;
    1040:	89 81       	ldd	r24, Y+1	; 0x01
}
    1042:	0f 90       	pop	r0
    1044:	0f 90       	pop	r0
    1046:	cf 91       	pop	r28
    1048:	df 91       	pop	r29
    104a:	08 95       	ret

0000104c <st_manual_cmd>:
char st_manual_cmd(char input)
{
    104c:	df 93       	push	r29
    104e:	cf 93       	push	r28
    1050:	00 d0       	rcall	.+0      	; 0x1052 <st_manual_cmd+0x6>
    1052:	cd b7       	in	r28, 0x3d	; 61
    1054:	de b7       	in	r29, 0x3e	; 62
    1056:	8a 83       	std	Y+2, r24	; 0x02
	static BOOL first_run = TRUE;
	static BOOL cmd_enabled = FALSE;
	
	if(input==KEY_ENTER)
    1058:	8a 81       	ldd	r24, Y+2	; 0x02
    105a:	83 30       	cpi	r24, 0x03	; 3
    105c:	b1 f5       	brne	.+108    	; 0x10ca <st_manual_cmd+0x7e>
	{
		if(cmd_enabled)
    105e:	80 91 4b 01 	lds	r24, 0x014B
    1062:	88 23       	and	r24, r24
    1064:	b9 f0       	breq	.+46     	; 0x1094 <st_manual_cmd+0x48>
		{
			PWM_disable();
    1066:	0e 94 16 0e 	call	0x1c2c	; 0x1c2c <PWM_disable>
			cli();
    106a:	f8 94       	cli
			lcd_clrscr();
    106c:	0e 94 fb 05 	call	0xbf6	; 0xbf6 <lcd_clrscr>
			lcd_gotoxy(0,0);
    1070:	80 e0       	ldi	r24, 0x00	; 0
    1072:	60 e0       	ldi	r22, 0x00	; 0
    1074:	0e 94 e3 05 	call	0xbc6	; 0xbc6 <lcd_gotoxy>
			lcd_puts_p(ST_MANUAL_CMD_TXT);
    1078:	8d ea       	ldi	r24, 0xAD	; 173
    107a:	90 e0       	ldi	r25, 0x00	; 0
    107c:	0e 94 3f 06 	call	0xc7e	; 0xc7e <lcd_puts_p>
			lcd_gotoxy(0,1);
    1080:	80 e0       	ldi	r24, 0x00	; 0
    1082:	61 e0       	ldi	r22, 0x01	; 1
    1084:	0e 94 e3 05 	call	0xbc6	; 0xbc6 <lcd_gotoxy>
			lcd_puts_P("0FF");
    1088:	88 e6       	ldi	r24, 0x68	; 104
    108a:	90 e0       	ldi	r25, 0x00	; 0
    108c:	0e 94 3f 06 	call	0xc7e	; 0xc7e <lcd_puts_p>
			sei();
    1090:	78 94       	sei
    1092:	16 c0       	rjmp	.+44     	; 0x10c0 <st_manual_cmd+0x74>
		}
		else
		{
			PWM_enable();
    1094:	0e 94 d8 0d 	call	0x1bb0	; 0x1bb0 <PWM_enable>
			cli();
    1098:	f8 94       	cli
			lcd_clrscr();
    109a:	0e 94 fb 05 	call	0xbf6	; 0xbf6 <lcd_clrscr>
			lcd_gotoxy(0,0);
    109e:	80 e0       	ldi	r24, 0x00	; 0
    10a0:	60 e0       	ldi	r22, 0x00	; 0
    10a2:	0e 94 e3 05 	call	0xbc6	; 0xbc6 <lcd_gotoxy>
			lcd_puts_p(ST_MANUAL_CMD_TXT);
    10a6:	8d ea       	ldi	r24, 0xAD	; 173
    10a8:	90 e0       	ldi	r25, 0x00	; 0
    10aa:	0e 94 3f 06 	call	0xc7e	; 0xc7e <lcd_puts_p>
			lcd_gotoxy(0,1);
    10ae:	80 e0       	ldi	r24, 0x00	; 0
    10b0:	61 e0       	ldi	r22, 0x01	; 1
    10b2:	0e 94 e3 05 	call	0xbc6	; 0xbc6 <lcd_gotoxy>
			lcd_puts_P("0N");
    10b6:	8c e6       	ldi	r24, 0x6C	; 108
    10b8:	90 e0       	ldi	r25, 0x00	; 0
    10ba:	0e 94 3f 06 	call	0xc7e	; 0xc7e <lcd_puts_p>
			sei();
    10be:	78 94       	sei
		}			
		cmd_enabled = ~cmd_enabled;
    10c0:	80 91 4b 01 	lds	r24, 0x014B
    10c4:	80 95       	com	r24
    10c6:	80 93 4b 01 	sts	0x014B, r24
	}
	
	unsigned char nextstate = OS_stateMachine(OS_CURRENT_STATE, input);
    10ca:	80 91 75 01 	lds	r24, 0x0175
    10ce:	6a 81       	ldd	r22, Y+2	; 0x02
    10d0:	0e 94 02 0b 	call	0x1604	; 0x1604 <OS_stateMachine>
    10d4:	89 83       	std	Y+1, r24	; 0x01
	if (nextstate!=OS_CURRENT_STATE) // Si on quitte l'tat
    10d6:	80 91 75 01 	lds	r24, 0x0175
    10da:	99 81       	ldd	r25, Y+1	; 0x01
    10dc:	98 17       	cp	r25, r24
    10de:	19 f0       	breq	.+6      	; 0x10e6 <st_manual_cmd+0x9a>
		first_run=TRUE;
    10e0:	81 e0       	ldi	r24, 0x01	; 1
    10e2:	80 93 0d 01 	sts	0x010D, r24
	return nextstate;
    10e6:	89 81       	ldd	r24, Y+1	; 0x01
}
    10e8:	0f 90       	pop	r0
    10ea:	0f 90       	pop	r0
    10ec:	cf 91       	pop	r28
    10ee:	df 91       	pop	r29
    10f0:	08 95       	ret

000010f2 <st_manual_set_cmd>:

char st_manual_set_cmd(char input)
{
    10f2:	df 93       	push	r29
    10f4:	cf 93       	push	r28
    10f6:	cd b7       	in	r28, 0x3d	; 61
    10f8:	de b7       	in	r29, 0x3e	; 62
    10fa:	e2 97       	sbiw	r28, 0x32	; 50
    10fc:	0f b6       	in	r0, 0x3f	; 63
    10fe:	f8 94       	cli
    1100:	de bf       	out	0x3e, r29	; 62
    1102:	0f be       	out	0x3f, r0	; 63
    1104:	cd bf       	out	0x3d, r28	; 61
    1106:	8a ab       	std	Y+50, r24	; 0x32
	static BOOL first_run = TRUE;
	if(first_run==TRUE)
    1108:	80 91 0c 01 	lds	r24, 0x010C
    110c:	81 30       	cpi	r24, 0x01	; 1
    110e:	c9 f5       	brne	.+114    	; 0x1182 <st_manual_set_cmd+0x90>
	{
		char msg[16];
		sprintf(msg,"%d",PWM_DC);
    1110:	80 91 02 01 	lds	r24, 0x0102
    1114:	28 2f       	mov	r18, r24
    1116:	30 e0       	ldi	r19, 0x00	; 0
    1118:	00 d0       	rcall	.+0      	; 0x111a <st_manual_set_cmd+0x28>
    111a:	00 d0       	rcall	.+0      	; 0x111c <st_manual_set_cmd+0x2a>
    111c:	00 d0       	rcall	.+0      	; 0x111e <st_manual_set_cmd+0x2c>
    111e:	8d b7       	in	r24, 0x3d	; 61
    1120:	9e b7       	in	r25, 0x3e	; 62
    1122:	01 96       	adiw	r24, 0x01	; 1
    1124:	ae 01       	movw	r20, r28
    1126:	4e 5f       	subi	r20, 0xFE	; 254
    1128:	5f 4f       	sbci	r21, 0xFF	; 255
    112a:	fc 01       	movw	r30, r24
    112c:	51 83       	std	Z+1, r21	; 0x01
    112e:	40 83       	st	Z, r20
    1130:	49 e0       	ldi	r20, 0x09	; 9
    1132:	51 e0       	ldi	r21, 0x01	; 1
    1134:	fc 01       	movw	r30, r24
    1136:	53 83       	std	Z+3, r21	; 0x03
    1138:	42 83       	std	Z+2, r20	; 0x02
    113a:	fc 01       	movw	r30, r24
    113c:	35 83       	std	Z+5, r19	; 0x05
    113e:	24 83       	std	Z+4, r18	; 0x04
    1140:	0e 94 1e 0f 	call	0x1e3c	; 0x1e3c <sprintf>
    1144:	8d b7       	in	r24, 0x3d	; 61
    1146:	9e b7       	in	r25, 0x3e	; 62
    1148:	06 96       	adiw	r24, 0x06	; 6
    114a:	0f b6       	in	r0, 0x3f	; 63
    114c:	f8 94       	cli
    114e:	9e bf       	out	0x3e, r25	; 62
    1150:	0f be       	out	0x3f, r0	; 63
    1152:	8d bf       	out	0x3d, r24	; 61
		cli();
    1154:	f8 94       	cli
		lcd_clrscr();
    1156:	0e 94 fb 05 	call	0xbf6	; 0xbf6 <lcd_clrscr>
		lcd_gotoxy(0,0);
    115a:	80 e0       	ldi	r24, 0x00	; 0
    115c:	60 e0       	ldi	r22, 0x00	; 0
    115e:	0e 94 e3 05 	call	0xbc6	; 0xbc6 <lcd_gotoxy>
		lcd_puts_p(ST_MANUAL_SET_CMD_TXT);
    1162:	87 eb       	ldi	r24, 0xB7	; 183
    1164:	90 e0       	ldi	r25, 0x00	; 0
    1166:	0e 94 3f 06 	call	0xc7e	; 0xc7e <lcd_puts_p>
		lcd_gotoxy(0,1);
    116a:	80 e0       	ldi	r24, 0x00	; 0
    116c:	61 e0       	ldi	r22, 0x01	; 1
    116e:	0e 94 e3 05 	call	0xbc6	; 0xbc6 <lcd_gotoxy>
		lcd_puts(msg);
    1172:	ce 01       	movw	r24, r28
    1174:	02 96       	adiw	r24, 0x02	; 2
    1176:	0e 94 1e 06 	call	0xc3c	; 0xc3c <lcd_puts>
		sei();
    117a:	78 94       	sei
		first_run=FALSE;
    117c:	10 92 0c 01 	sts	0x010C, r1
    1180:	91 c0       	rjmp	.+290    	; 0x12a4 <st_manual_set_cmd+0x1b2>
	}
	else if(input==KEY_UP && PWM_DC<=250)
    1182:	8a a9       	ldd	r24, Y+50	; 0x32
    1184:	81 30       	cpi	r24, 0x01	; 1
    1186:	09 f0       	breq	.+2      	; 0x118a <st_manual_set_cmd+0x98>
    1188:	45 c0       	rjmp	.+138    	; 0x1214 <st_manual_set_cmd+0x122>
    118a:	80 91 02 01 	lds	r24, 0x0102
    118e:	8b 3f       	cpi	r24, 0xFB	; 251
    1190:	08 f0       	brcs	.+2      	; 0x1194 <st_manual_set_cmd+0xa2>
    1192:	40 c0       	rjmp	.+128    	; 0x1214 <st_manual_set_cmd+0x122>
	{
		PWM_DC+=5;
    1194:	80 91 02 01 	lds	r24, 0x0102
    1198:	8b 5f       	subi	r24, 0xFB	; 251
    119a:	80 93 02 01 	sts	0x0102, r24
		PWM_setDutyCycle(PWM_DC);
    119e:	80 91 02 01 	lds	r24, 0x0102
    11a2:	0e 94 c9 0d 	call	0x1b92	; 0x1b92 <PWM_setDutyCycle>
		char msg[16];
		sprintf(msg,"%d",PWM_DC);
    11a6:	80 91 02 01 	lds	r24, 0x0102
    11aa:	28 2f       	mov	r18, r24
    11ac:	30 e0       	ldi	r19, 0x00	; 0
    11ae:	00 d0       	rcall	.+0      	; 0x11b0 <st_manual_set_cmd+0xbe>
    11b0:	00 d0       	rcall	.+0      	; 0x11b2 <st_manual_set_cmd+0xc0>
    11b2:	00 d0       	rcall	.+0      	; 0x11b4 <st_manual_set_cmd+0xc2>
    11b4:	8d b7       	in	r24, 0x3d	; 61
    11b6:	9e b7       	in	r25, 0x3e	; 62
    11b8:	01 96       	adiw	r24, 0x01	; 1
    11ba:	ae 01       	movw	r20, r28
    11bc:	4e 5e       	subi	r20, 0xEE	; 238
    11be:	5f 4f       	sbci	r21, 0xFF	; 255
    11c0:	fc 01       	movw	r30, r24
    11c2:	51 83       	std	Z+1, r21	; 0x01
    11c4:	40 83       	st	Z, r20
    11c6:	49 e0       	ldi	r20, 0x09	; 9
    11c8:	51 e0       	ldi	r21, 0x01	; 1
    11ca:	fc 01       	movw	r30, r24
    11cc:	53 83       	std	Z+3, r21	; 0x03
    11ce:	42 83       	std	Z+2, r20	; 0x02
    11d0:	fc 01       	movw	r30, r24
    11d2:	35 83       	std	Z+5, r19	; 0x05
    11d4:	24 83       	std	Z+4, r18	; 0x04
    11d6:	0e 94 1e 0f 	call	0x1e3c	; 0x1e3c <sprintf>
    11da:	8d b7       	in	r24, 0x3d	; 61
    11dc:	9e b7       	in	r25, 0x3e	; 62
    11de:	06 96       	adiw	r24, 0x06	; 6
    11e0:	0f b6       	in	r0, 0x3f	; 63
    11e2:	f8 94       	cli
    11e4:	9e bf       	out	0x3e, r25	; 62
    11e6:	0f be       	out	0x3f, r0	; 63
    11e8:	8d bf       	out	0x3d, r24	; 61
		cli();
    11ea:	f8 94       	cli
		lcd_clrscr();
    11ec:	0e 94 fb 05 	call	0xbf6	; 0xbf6 <lcd_clrscr>
		lcd_gotoxy(0,0);
    11f0:	80 e0       	ldi	r24, 0x00	; 0
    11f2:	60 e0       	ldi	r22, 0x00	; 0
    11f4:	0e 94 e3 05 	call	0xbc6	; 0xbc6 <lcd_gotoxy>
		lcd_puts_p(ST_MANUAL_SET_CMD_TXT);
    11f8:	87 eb       	ldi	r24, 0xB7	; 183
    11fa:	90 e0       	ldi	r25, 0x00	; 0
    11fc:	0e 94 3f 06 	call	0xc7e	; 0xc7e <lcd_puts_p>
		lcd_gotoxy(0,1);
    1200:	80 e0       	ldi	r24, 0x00	; 0
    1202:	61 e0       	ldi	r22, 0x01	; 1
    1204:	0e 94 e3 05 	call	0xbc6	; 0xbc6 <lcd_gotoxy>
		lcd_puts(msg);
    1208:	ce 01       	movw	r24, r28
    120a:	42 96       	adiw	r24, 0x12	; 18
    120c:	0e 94 1e 06 	call	0xc3c	; 0xc3c <lcd_puts>
		sei();
    1210:	78 94       	sei
		lcd_puts(msg);
		sei();
		first_run=FALSE;
	}
	else if(input==KEY_UP && PWM_DC<=250)
	{
    1212:	48 c0       	rjmp	.+144    	; 0x12a4 <st_manual_set_cmd+0x1b2>
		lcd_puts_p(ST_MANUAL_SET_CMD_TXT);
		lcd_gotoxy(0,1);
		lcd_puts(msg);
		sei();
	}
	else if(input == KEY_DOWN && PWM_DC>=5)
    1214:	8a a9       	ldd	r24, Y+50	; 0x32
    1216:	84 30       	cpi	r24, 0x04	; 4
    1218:	09 f0       	breq	.+2      	; 0x121c <st_manual_set_cmd+0x12a>
    121a:	44 c0       	rjmp	.+136    	; 0x12a4 <st_manual_set_cmd+0x1b2>
    121c:	80 91 02 01 	lds	r24, 0x0102
    1220:	85 30       	cpi	r24, 0x05	; 5
    1222:	08 f4       	brcc	.+2      	; 0x1226 <st_manual_set_cmd+0x134>
    1224:	3f c0       	rjmp	.+126    	; 0x12a4 <st_manual_set_cmd+0x1b2>
	{
		PWM_DC-=5;
    1226:	80 91 02 01 	lds	r24, 0x0102
    122a:	85 50       	subi	r24, 0x05	; 5
    122c:	80 93 02 01 	sts	0x0102, r24
		PWM_setDutyCycle(PWM_DC);
    1230:	80 91 02 01 	lds	r24, 0x0102
    1234:	0e 94 c9 0d 	call	0x1b92	; 0x1b92 <PWM_setDutyCycle>
		char msg[16];
		sprintf(msg,"%d",PWM_DC);
    1238:	80 91 02 01 	lds	r24, 0x0102
    123c:	28 2f       	mov	r18, r24
    123e:	30 e0       	ldi	r19, 0x00	; 0
    1240:	00 d0       	rcall	.+0      	; 0x1242 <st_manual_set_cmd+0x150>
    1242:	00 d0       	rcall	.+0      	; 0x1244 <st_manual_set_cmd+0x152>
    1244:	00 d0       	rcall	.+0      	; 0x1246 <st_manual_set_cmd+0x154>
    1246:	8d b7       	in	r24, 0x3d	; 61
    1248:	9e b7       	in	r25, 0x3e	; 62
    124a:	01 96       	adiw	r24, 0x01	; 1
    124c:	ae 01       	movw	r20, r28
    124e:	4e 5d       	subi	r20, 0xDE	; 222
    1250:	5f 4f       	sbci	r21, 0xFF	; 255
    1252:	fc 01       	movw	r30, r24
    1254:	51 83       	std	Z+1, r21	; 0x01
    1256:	40 83       	st	Z, r20
    1258:	49 e0       	ldi	r20, 0x09	; 9
    125a:	51 e0       	ldi	r21, 0x01	; 1
    125c:	fc 01       	movw	r30, r24
    125e:	53 83       	std	Z+3, r21	; 0x03
    1260:	42 83       	std	Z+2, r20	; 0x02
    1262:	fc 01       	movw	r30, r24
    1264:	35 83       	std	Z+5, r19	; 0x05
    1266:	24 83       	std	Z+4, r18	; 0x04
    1268:	0e 94 1e 0f 	call	0x1e3c	; 0x1e3c <sprintf>
    126c:	8d b7       	in	r24, 0x3d	; 61
    126e:	9e b7       	in	r25, 0x3e	; 62
    1270:	06 96       	adiw	r24, 0x06	; 6
    1272:	0f b6       	in	r0, 0x3f	; 63
    1274:	f8 94       	cli
    1276:	9e bf       	out	0x3e, r25	; 62
    1278:	0f be       	out	0x3f, r0	; 63
    127a:	8d bf       	out	0x3d, r24	; 61
		cli();
    127c:	f8 94       	cli
		lcd_clrscr();
    127e:	0e 94 fb 05 	call	0xbf6	; 0xbf6 <lcd_clrscr>
		lcd_gotoxy(0,0);
    1282:	80 e0       	ldi	r24, 0x00	; 0
    1284:	60 e0       	ldi	r22, 0x00	; 0
    1286:	0e 94 e3 05 	call	0xbc6	; 0xbc6 <lcd_gotoxy>
		lcd_puts_p(ST_MANUAL_SET_CMD_TXT);
    128a:	87 eb       	ldi	r24, 0xB7	; 183
    128c:	90 e0       	ldi	r25, 0x00	; 0
    128e:	0e 94 3f 06 	call	0xc7e	; 0xc7e <lcd_puts_p>
		lcd_gotoxy(0,1);
    1292:	80 e0       	ldi	r24, 0x00	; 0
    1294:	61 e0       	ldi	r22, 0x01	; 1
    1296:	0e 94 e3 05 	call	0xbc6	; 0xbc6 <lcd_gotoxy>
		lcd_puts(msg);
    129a:	ce 01       	movw	r24, r28
    129c:	82 96       	adiw	r24, 0x22	; 34
    129e:	0e 94 1e 06 	call	0xc3c	; 0xc3c <lcd_puts>
		sei();
    12a2:	78 94       	sei
	}
	
	unsigned char nextstate = OS_stateMachine(OS_CURRENT_STATE, input);
    12a4:	80 91 75 01 	lds	r24, 0x0175
    12a8:	6a a9       	ldd	r22, Y+50	; 0x32
    12aa:	0e 94 02 0b 	call	0x1604	; 0x1604 <OS_stateMachine>
    12ae:	89 83       	std	Y+1, r24	; 0x01
	if (nextstate!=OS_CURRENT_STATE) // Si on quitte l'tat
    12b0:	80 91 75 01 	lds	r24, 0x0175
    12b4:	99 81       	ldd	r25, Y+1	; 0x01
    12b6:	98 17       	cp	r25, r24
    12b8:	19 f0       	breq	.+6      	; 0x12c0 <st_manual_set_cmd+0x1ce>
		first_run=TRUE;
    12ba:	81 e0       	ldi	r24, 0x01	; 1
    12bc:	80 93 0c 01 	sts	0x010C, r24
	return nextstate;
    12c0:	89 81       	ldd	r24, Y+1	; 0x01
}
    12c2:	e2 96       	adiw	r28, 0x32	; 50
    12c4:	0f b6       	in	r0, 0x3f	; 63
    12c6:	f8 94       	cli
    12c8:	de bf       	out	0x3e, r29	; 62
    12ca:	0f be       	out	0x3f, r0	; 63
    12cc:	cd bf       	out	0x3d, r28	; 61
    12ce:	cf 91       	pop	r28
    12d0:	df 91       	pop	r29
    12d2:	08 95       	ret

000012d4 <MAX_init>:
#include "main.h"
#include "MAX.h"
#include "SPI.h"

void MAX_init(void)
{
    12d4:	df 93       	push	r29
    12d6:	cf 93       	push	r28
    12d8:	cd b7       	in	r28, 0x3d	; 61
    12da:	de b7       	in	r29, 0x3e	; 62
	SPI_init(FRAME_SIZE);
    12dc:	80 e2       	ldi	r24, 0x20	; 32
    12de:	0e 94 5e 0c 	call	0x18bc	; 0x18bc <SPI_init>
}
    12e2:	cf 91       	pop	r28
    12e4:	df 91       	pop	r29
    12e6:	08 95       	ret

000012e8 <MAX_start>:
void MAX_start(void)
{
    12e8:	df 93       	push	r29
    12ea:	cf 93       	push	r28
    12ec:	cd b7       	in	r28, 0x3d	; 61
    12ee:	de b7       	in	r29, 0x3e	; 62
	SPI_start();
    12f0:	0e 94 ad 0c 	call	0x195a	; 0x195a <SPI_start>
}
    12f4:	cf 91       	pop	r28
    12f6:	df 91       	pop	r29
    12f8:	08 95       	ret

000012fa <MAX_getTemp>:
int MAX_getTemp(void)
{
    12fa:	df 93       	push	r29
    12fc:	cf 93       	push	r28
    12fe:	00 d0       	rcall	.+0      	; 0x1300 <MAX_getTemp+0x6>
    1300:	00 d0       	rcall	.+0      	; 0x1302 <MAX_getTemp+0x8>
    1302:	00 d0       	rcall	.+0      	; 0x1304 <MAX_getTemp+0xa>
    1304:	cd b7       	in	r28, 0x3d	; 61
    1306:	de b7       	in	r29, 0x3e	; 62
	uint32_t tmp = SPI_getFrame();
    1308:	0e 94 d3 0c 	call	0x19a6	; 0x19a6 <SPI_getFrame>
    130c:	dc 01       	movw	r26, r24
    130e:	cb 01       	movw	r24, r22
    1310:	89 83       	std	Y+1, r24	; 0x01
    1312:	9a 83       	std	Y+2, r25	; 0x02
    1314:	ab 83       	std	Y+3, r26	; 0x03
    1316:	bc 83       	std	Y+4, r27	; 0x04
	tmp = tmp >> TEMP_POS;
    1318:	89 81       	ldd	r24, Y+1	; 0x01
    131a:	9a 81       	ldd	r25, Y+2	; 0x02
    131c:	ab 81       	ldd	r26, Y+3	; 0x03
    131e:	bc 81       	ldd	r27, Y+4	; 0x04
    1320:	07 2e       	mov	r0, r23
    1322:	72 e1       	ldi	r23, 0x12	; 18
    1324:	b6 95       	lsr	r27
    1326:	a7 95       	ror	r26
    1328:	97 95       	ror	r25
    132a:	87 95       	ror	r24
    132c:	7a 95       	dec	r23
    132e:	d1 f7       	brne	.-12     	; 0x1324 <MAX_getTemp+0x2a>
    1330:	70 2d       	mov	r23, r0
    1332:	89 83       	std	Y+1, r24	; 0x01
    1334:	9a 83       	std	Y+2, r25	; 0x02
    1336:	ab 83       	std	Y+3, r26	; 0x03
    1338:	bc 83       	std	Y+4, r27	; 0x04
	
	int temp = (int)(tmp & ((1<<(TEMP_SIZE-1))-1));
    133a:	89 81       	ldd	r24, Y+1	; 0x01
    133c:	9a 81       	ldd	r25, Y+2	; 0x02
    133e:	9f 71       	andi	r25, 0x1F	; 31
    1340:	9e 83       	std	Y+6, r25	; 0x06
    1342:	8d 83       	std	Y+5, r24	; 0x05
	temp = temp/4;									//  LSB = 0.25C
    1344:	8d 81       	ldd	r24, Y+5	; 0x05
    1346:	9e 81       	ldd	r25, Y+6	; 0x06
    1348:	99 23       	and	r25, r25
    134a:	0c f4       	brge	.+2      	; 0x134e <MAX_getTemp+0x54>
    134c:	03 96       	adiw	r24, 0x03	; 3
    134e:	95 95       	asr	r25
    1350:	87 95       	ror	r24
    1352:	95 95       	asr	r25
    1354:	87 95       	ror	r24
    1356:	9e 83       	std	Y+6, r25	; 0x06
    1358:	8d 83       	std	Y+5, r24	; 0x05
	if(tmp&(1<<(TEMP_SIZE-1))==1)
	{
		temp = -temp;
	}
	
	return temp;
    135a:	8d 81       	ldd	r24, Y+5	; 0x05
    135c:	9e 81       	ldd	r25, Y+6	; 0x06
}
    135e:	26 96       	adiw	r28, 0x06	; 6
    1360:	0f b6       	in	r0, 0x3f	; 63
    1362:	f8 94       	cli
    1364:	de bf       	out	0x3e, r29	; 62
    1366:	0f be       	out	0x3f, r0	; 63
    1368:	cd bf       	out	0x3d, r28	; 61
    136a:	cf 91       	pop	r28
    136c:	df 91       	pop	r29
    136e:	08 95       	ret

00001370 <OS_init>:
unsigned int TIMER_CB_TIME[TIMER_CB_MAX];
volatile unsigned int TIMER_CB_TICK[TIMER_CB_MAX];


void OS_init(void)
{
    1370:	df 93       	push	r29
    1372:	cf 93       	push	r28
    1374:	0f 92       	push	r0
    1376:	cd b7       	in	r28, 0x3d	; 61
    1378:	de b7       	in	r29, 0x3e	; 62
	
 	unsigned char i;
	
 	//Initialisation pour variables CallBack
 	for (i=0; i<TIMER_CB_MAX; i++)
    137a:	19 82       	std	Y+1, r1	; 0x01
    137c:	21 c0       	rjmp	.+66     	; 0x13c0 <OS_init+0x50>
 	{
  		 TIMER_CB_FUNC[i] = 0;
    137e:	89 81       	ldd	r24, Y+1	; 0x01
    1380:	88 2f       	mov	r24, r24
    1382:	90 e0       	ldi	r25, 0x00	; 0
    1384:	88 0f       	add	r24, r24
    1386:	99 1f       	adc	r25, r25
    1388:	86 57       	subi	r24, 0x76	; 118
    138a:	9e 4f       	sbci	r25, 0xFE	; 254
    138c:	fc 01       	movw	r30, r24
    138e:	11 82       	std	Z+1, r1	; 0x01
    1390:	10 82       	st	Z, r1
  		 TIMER_CB_TIME[i] = 0;
    1392:	89 81       	ldd	r24, Y+1	; 0x01
    1394:	88 2f       	mov	r24, r24
    1396:	90 e0       	ldi	r25, 0x00	; 0
    1398:	88 0f       	add	r24, r24
    139a:	99 1f       	adc	r25, r25
    139c:	8a 58       	subi	r24, 0x8A	; 138
    139e:	9e 4f       	sbci	r25, 0xFE	; 254
    13a0:	fc 01       	movw	r30, r24
    13a2:	11 82       	std	Z+1, r1	; 0x01
    13a4:	10 82       	st	Z, r1
		 TIMER_CB_TICK[i] = 0;
    13a6:	89 81       	ldd	r24, Y+1	; 0x01
    13a8:	88 2f       	mov	r24, r24
    13aa:	90 e0       	ldi	r25, 0x00	; 0
    13ac:	88 0f       	add	r24, r24
    13ae:	99 1f       	adc	r25, r25
    13b0:	8f 59       	subi	r24, 0x9F	; 159
    13b2:	9e 4f       	sbci	r25, 0xFE	; 254
    13b4:	fc 01       	movw	r30, r24
    13b6:	11 82       	std	Z+1, r1	; 0x01
    13b8:	10 82       	st	Z, r1
{
	
 	unsigned char i;
	
 	//Initialisation pour variables CallBack
 	for (i=0; i<TIMER_CB_MAX; i++)
    13ba:	89 81       	ldd	r24, Y+1	; 0x01
    13bc:	8f 5f       	subi	r24, 0xFF	; 255
    13be:	89 83       	std	Y+1, r24	; 0x01
    13c0:	89 81       	ldd	r24, Y+1	; 0x01
    13c2:	8a 30       	cpi	r24, 0x0A	; 10
    13c4:	e0 f2       	brcs	.-72     	; 0x137e <OS_init+0xe>
  		 TIMER_CB_FUNC[i] = 0;
  		 TIMER_CB_TIME[i] = 0;
		 TIMER_CB_TICK[i] = 0;
  	}	

}
    13c6:	0f 90       	pop	r0
    13c8:	cf 91       	pop	r28
    13ca:	df 91       	pop	r29
    13cc:	08 95       	ret

000013ce <OS_start>:

void OS_start()
{
    13ce:	ef 92       	push	r14
    13d0:	ff 92       	push	r15
    13d2:	0f 93       	push	r16
    13d4:	1f 93       	push	r17
    13d6:	df 93       	push	r29
    13d8:	cf 93       	push	r28
    13da:	cd b7       	in	r28, 0x3d	; 61
    13dc:	de b7       	in	r29, 0x3e	; 62
    13de:	65 97       	sbiw	r28, 0x15	; 21
    13e0:	0f b6       	in	r0, 0x3f	; 63
    13e2:	f8 94       	cli
    13e4:	de bf       	out	0x3e, r29	; 62
    13e6:	0f be       	out	0x3f, r0	; 63
    13e8:	cd bf       	out	0x3d, r28	; 61
	// start the callback timer
	CB_TIMER_Init_1ms();
    13ea:	0e 94 81 0d 	call	0x1b02	; 0x1b02 <CB_TIMER_Init_1ms>
	// for the state machine
	unsigned char nextstate;	// holds next state's id
	PGM_P statetext;			// point to the text to display
	char (*pStateFunc)(char);	// point to the state's function
	
	unsigned char input = KEY_NULL;		// holds pressed key
    13ee:	1a 86       	std	Y+10, r1	; 0x0a
	unsigned char i,j;
	
	// Init variables de la machine d'tats
    OS_CURRENT_STATE = ST_WELCOME_ID;
    13f0:	88 e0       	ldi	r24, 0x08	; 8
    13f2:	80 93 75 01 	sts	0x0175, r24
    nextstate = OS_CURRENT_STATE;
    13f6:	80 91 75 01 	lds	r24, 0x0175
    13fa:	8a 83       	std	Y+2, r24	; 0x02
	statetext = ST_WELCOME_TXT;
    13fc:	8f e6       	ldi	r24, 0x6F	; 111
    13fe:	90 e0       	ldi	r25, 0x00	; 0
    1400:	9c 83       	std	Y+4, r25	; 0x04
    1402:	8b 83       	std	Y+3, r24	; 0x03
    pStateFunc = st_welcome;
    1404:	86 ee       	ldi	r24, 0xE6	; 230
    1406:	96 e0       	ldi	r25, 0x06	; 6
    1408:	9e 83       	std	Y+6, r25	; 0x06
    140a:	8d 83       	std	Y+5, r24	; 0x05
    140c:	01 c0       	rjmp	.+2      	; 0x1410 <OS_start+0x42>
					//break;
				}
			}
		}		
		
	}     
    140e:	00 00       	nop
	
	// main loop
	while(TRUE)
	{
		// Gestion des callback
		unsigned int j=1; //Attention ,on commence  1 (IDCB = 0 --> callback non enregistre)
    1410:	81 e0       	ldi	r24, 0x01	; 1
    1412:	90 e0       	ldi	r25, 0x00	; 0
    1414:	99 87       	std	Y+9, r25	; 0x09
    1416:	88 87       	std	Y+8, r24	; 0x08
		while (TIMER_CB_FUNC[j]!=0 && j<TIMER_CB_MAX) j++; // pour trouver le nombre de callback enregistres
    1418:	05 c0       	rjmp	.+10     	; 0x1424 <OS_start+0x56>
    141a:	88 85       	ldd	r24, Y+8	; 0x08
    141c:	99 85       	ldd	r25, Y+9	; 0x09
    141e:	01 96       	adiw	r24, 0x01	; 1
    1420:	99 87       	std	Y+9, r25	; 0x09
    1422:	88 87       	std	Y+8, r24	; 0x08
    1424:	88 85       	ldd	r24, Y+8	; 0x08
    1426:	99 85       	ldd	r25, Y+9	; 0x09
    1428:	88 0f       	add	r24, r24
    142a:	99 1f       	adc	r25, r25
    142c:	86 57       	subi	r24, 0x76	; 118
    142e:	9e 4f       	sbci	r25, 0xFE	; 254
    1430:	fc 01       	movw	r30, r24
    1432:	80 81       	ld	r24, Z
    1434:	91 81       	ldd	r25, Z+1	; 0x01
    1436:	00 97       	sbiw	r24, 0x00	; 0
    1438:	29 f0       	breq	.+10     	; 0x1444 <OS_start+0x76>
    143a:	88 85       	ldd	r24, Y+8	; 0x08
    143c:	99 85       	ldd	r25, Y+9	; 0x09
    143e:	8a 30       	cpi	r24, 0x0A	; 10
    1440:	91 05       	cpc	r25, r1
    1442:	58 f3       	brcs	.-42     	; 0x141a <OS_start+0x4c>
		
		// Check les conditions pour rappeler les fonctions lies au temps
  		for (idx = 1; idx < j; idx++)
    1444:	81 e0       	ldi	r24, 0x01	; 1
    1446:	89 83       	std	Y+1, r24	; 0x01
    1448:	3c c0       	rjmp	.+120    	; 0x14c2 <OS_start+0xf4>
    	{
	 		if (TIMER_CB_FUNC[idx]) //Si on a l'adresse d'une fonction CB  cet index
    144a:	89 81       	ldd	r24, Y+1	; 0x01
    144c:	88 2f       	mov	r24, r24
    144e:	90 e0       	ldi	r25, 0x00	; 0
    1450:	88 0f       	add	r24, r24
    1452:	99 1f       	adc	r25, r25
    1454:	86 57       	subi	r24, 0x76	; 118
    1456:	9e 4f       	sbci	r25, 0xFE	; 254
    1458:	fc 01       	movw	r30, r24
    145a:	80 81       	ld	r24, Z
    145c:	91 81       	ldd	r25, Z+1	; 0x01
    145e:	00 97       	sbiw	r24, 0x00	; 0
    1460:	69 f1       	breq	.+90     	; 0x14bc <OS_start+0xee>
     			if (TIMER_CB_TICK[idx] >= TIMER_CB_TIME[idx])//Si on est arriv au nombre de mS demand, on appelle la fonction 
    1462:	89 81       	ldd	r24, Y+1	; 0x01
    1464:	88 2f       	mov	r24, r24
    1466:	90 e0       	ldi	r25, 0x00	; 0
    1468:	88 0f       	add	r24, r24
    146a:	99 1f       	adc	r25, r25
    146c:	8f 59       	subi	r24, 0x9F	; 159
    146e:	9e 4f       	sbci	r25, 0xFE	; 254
    1470:	fc 01       	movw	r30, r24
    1472:	20 81       	ld	r18, Z
    1474:	31 81       	ldd	r19, Z+1	; 0x01
    1476:	89 81       	ldd	r24, Y+1	; 0x01
    1478:	88 2f       	mov	r24, r24
    147a:	90 e0       	ldi	r25, 0x00	; 0
    147c:	88 0f       	add	r24, r24
    147e:	99 1f       	adc	r25, r25
    1480:	8a 58       	subi	r24, 0x8A	; 138
    1482:	9e 4f       	sbci	r25, 0xFE	; 254
    1484:	fc 01       	movw	r30, r24
    1486:	80 81       	ld	r24, Z
    1488:	91 81       	ldd	r25, Z+1	; 0x01
    148a:	28 17       	cp	r18, r24
    148c:	39 07       	cpc	r19, r25
    148e:	b0 f0       	brcs	.+44     	; 0x14bc <OS_start+0xee>
      			{ 
	  				//TIMER_CB_TICK[idx] = TIMER_CB_TICK[idx] - TIMER_CB_TIME[idx];
					TIMER_CB_TICK[idx] = 0;
    1490:	89 81       	ldd	r24, Y+1	; 0x01
    1492:	88 2f       	mov	r24, r24
    1494:	90 e0       	ldi	r25, 0x00	; 0
    1496:	88 0f       	add	r24, r24
    1498:	99 1f       	adc	r25, r25
    149a:	8f 59       	subi	r24, 0x9F	; 159
    149c:	9e 4f       	sbci	r25, 0xFE	; 254
    149e:	fc 01       	movw	r30, r24
    14a0:	11 82       	std	Z+1, r1	; 0x01
    14a2:	10 82       	st	Z, r1
      				TIMER_CB_FUNC[idx]();  //Appel de la fonction enregistre!					
    14a4:	89 81       	ldd	r24, Y+1	; 0x01
    14a6:	88 2f       	mov	r24, r24
    14a8:	90 e0       	ldi	r25, 0x00	; 0
    14aa:	88 0f       	add	r24, r24
    14ac:	99 1f       	adc	r25, r25
    14ae:	86 57       	subi	r24, 0x76	; 118
    14b0:	9e 4f       	sbci	r25, 0xFE	; 254
    14b2:	fc 01       	movw	r30, r24
    14b4:	80 81       	ld	r24, Z
    14b6:	91 81       	ldd	r25, Z+1	; 0x01
    14b8:	fc 01       	movw	r30, r24
    14ba:	09 95       	icall
		// Gestion des callback
		unsigned int j=1; //Attention ,on commence  1 (IDCB = 0 --> callback non enregistre)
		while (TIMER_CB_FUNC[j]!=0 && j<TIMER_CB_MAX) j++; // pour trouver le nombre de callback enregistres
		
		// Check les conditions pour rappeler les fonctions lies au temps
  		for (idx = 1; idx < j; idx++)
    14bc:	89 81       	ldd	r24, Y+1	; 0x01
    14be:	8f 5f       	subi	r24, 0xFF	; 255
    14c0:	89 83       	std	Y+1, r24	; 0x01
    14c2:	89 81       	ldd	r24, Y+1	; 0x01
    14c4:	28 2f       	mov	r18, r24
    14c6:	30 e0       	ldi	r19, 0x00	; 0
    14c8:	88 85       	ldd	r24, Y+8	; 0x08
    14ca:	99 85       	ldd	r25, Y+9	; 0x09
    14cc:	28 17       	cp	r18, r24
    14ce:	39 07       	cpc	r19, r25
    14d0:	08 f4       	brcc	.+2      	; 0x14d4 <OS_start+0x106>
    14d2:	bb cf       	rjmp	.-138    	; 0x144a <OS_start+0x7c>
  		}
		
		//Gestion machine d'tat
		
		// 1 - Read buttons
		input = KEYBOARD_getKey();
    14d4:	0e 94 30 02 	call	0x460	; 0x460 <KEYBOARD_getKey>
    14d8:	8a 87       	std	Y+10, r24	; 0x0a
		
		// 2 - display available state text
		if (statetext) 
    14da:	8b 81       	ldd	r24, Y+3	; 0x03
    14dc:	9c 81       	ldd	r25, Y+4	; 0x04
    14de:	00 97       	sbiw	r24, 0x00	; 0
    14e0:	71 f0       	breq	.+28     	; 0x14fe <OS_start+0x130>
		{
			cli();
    14e2:	f8 94       	cli
			lcd_clrscr();
    14e4:	0e 94 fb 05 	call	0xbf6	; 0xbf6 <lcd_clrscr>
			lcd_gotoxy(0,0);
    14e8:	80 e0       	ldi	r24, 0x00	; 0
    14ea:	60 e0       	ldi	r22, 0x00	; 0
    14ec:	0e 94 e3 05 	call	0xbc6	; 0xbc6 <lcd_gotoxy>
			lcd_puts_p(statetext);
    14f0:	8b 81       	ldd	r24, Y+3	; 0x03
    14f2:	9c 81       	ldd	r25, Y+4	; 0x04
    14f4:	0e 94 3f 06 	call	0xc7e	; 0xc7e <lcd_puts_p>
			sei();
    14f8:	78 94       	sei
			statetext = NULL;
    14fa:	1c 82       	std	Y+4, r1	; 0x04
    14fc:	1b 82       	std	Y+3, r1	; 0x03
		}
		
		// 3 - Call available state function         
		if (pStateFunc)
    14fe:	8d 81       	ldd	r24, Y+5	; 0x05
    1500:	9e 81       	ldd	r25, Y+6	; 0x06
    1502:	00 97       	sbiw	r24, 0x00	; 0
    1504:	39 f0       	breq	.+14     	; 0x1514 <OS_start+0x146>
		{
	  		nextstate = pStateFunc(input);
    1506:	2d 81       	ldd	r18, Y+5	; 0x05
    1508:	3e 81       	ldd	r19, Y+6	; 0x06
    150a:	8a 85       	ldd	r24, Y+10	; 0x0a
    150c:	f9 01       	movw	r30, r18
    150e:	09 95       	icall
    1510:	8a 83       	std	Y+2, r24	; 0x02
    1512:	06 c0       	rjmp	.+12     	; 0x1520 <OS_start+0x152>
		}	
		else
		{
			nextstate = OS_stateMachine(OS_CURRENT_STATE, input);
    1514:	80 91 75 01 	lds	r24, 0x0175
    1518:	6a 85       	ldd	r22, Y+10	; 0x0a
    151a:	0e 94 02 0b 	call	0x1604	; 0x1604 <OS_stateMachine>
    151e:	8a 83       	std	Y+2, r24	; 0x02
		}
		 
		if (nextstate != OS_CURRENT_STATE)  // il y a changement d'tat 
    1520:	80 91 75 01 	lds	r24, 0x0175
    1524:	9a 81       	ldd	r25, Y+2	; 0x02
    1526:	98 17       	cp	r25, r24
    1528:	09 f4       	brne	.+2      	; 0x152c <OS_start+0x15e>
    152a:	71 cf       	rjmp	.-286    	; 0x140e <OS_start+0x40>
		{
			OS_CURRENT_STATE = nextstate; // l'tat est maintenant le nouvel tat de la squence dfinie dans main.h
    152c:	8a 81       	ldd	r24, Y+2	; 0x02
    152e:	80 93 75 01 	sts	0x0175, r24
			for (i=0; (j=pgm_read_byte(&Menu_State[i].state)); i++)
    1532:	1f 82       	std	Y+7, r1	; 0x07
    1534:	49 c0       	rjmp	.+146    	; 0x15c8 <OS_start+0x1fa>
			{
				if (j == OS_CURRENT_STATE)
    1536:	80 91 75 01 	lds	r24, 0x0175
    153a:	28 2f       	mov	r18, r24
    153c:	30 e0       	ldi	r19, 0x00	; 0
    153e:	88 85       	ldd	r24, Y+8	; 0x08
    1540:	99 85       	ldd	r25, Y+9	; 0x09
    1542:	28 17       	cp	r18, r24
    1544:	39 07       	cpc	r19, r25
    1546:	09 f0       	breq	.+2      	; 0x154a <OS_start+0x17c>
    1548:	3c c0       	rjmp	.+120    	; 0x15c2 <OS_start+0x1f4>
				{
					statetext =  (PGM_P) pgm_read_word(&Menu_State[i].pText);
    154a:	8f 81       	ldd	r24, Y+7	; 0x07
    154c:	28 2f       	mov	r18, r24
    154e:	30 e0       	ldi	r19, 0x00	; 0
    1550:	c9 01       	movw	r24, r18
    1552:	88 0f       	add	r24, r24
    1554:	99 1f       	adc	r25, r25
    1556:	88 0f       	add	r24, r24
    1558:	99 1f       	adc	r25, r25
    155a:	82 0f       	add	r24, r18
    155c:	93 1f       	adc	r25, r19
    155e:	01 96       	adiw	r24, 0x01	; 1
    1560:	8c 53       	subi	r24, 0x3C	; 60
    1562:	9f 4f       	sbci	r25, 0xFF	; 255
    1564:	9f 87       	std	Y+15, r25	; 0x0f
    1566:	8e 87       	std	Y+14, r24	; 0x0e
    1568:	8e 85       	ldd	r24, Y+14	; 0x0e
    156a:	9f 85       	ldd	r25, Y+15	; 0x0f
    156c:	8c 01       	movw	r16, r24
    156e:	f8 01       	movw	r30, r16
    1570:	e5 90       	lpm	r14, Z+
    1572:	f4 90       	lpm	r15, Z+
    1574:	8f 01       	movw	r16, r30
    1576:	f9 8a       	std	Y+17, r15	; 0x11
    1578:	e8 8a       	std	Y+16, r14	; 0x10
    157a:	1f 87       	std	Y+15, r17	; 0x0f
    157c:	0e 87       	std	Y+14, r16	; 0x0e
    157e:	88 89       	ldd	r24, Y+16	; 0x10
    1580:	99 89       	ldd	r25, Y+17	; 0x11
    1582:	9c 83       	std	Y+4, r25	; 0x04
    1584:	8b 83       	std	Y+3, r24	; 0x03
					pStateFunc = (PGM_VOID_P) pgm_read_word(&Menu_State[i].pFunc);
    1586:	8f 81       	ldd	r24, Y+7	; 0x07
    1588:	28 2f       	mov	r18, r24
    158a:	30 e0       	ldi	r19, 0x00	; 0
    158c:	c9 01       	movw	r24, r18
    158e:	88 0f       	add	r24, r24
    1590:	99 1f       	adc	r25, r25
    1592:	88 0f       	add	r24, r24
    1594:	99 1f       	adc	r25, r25
    1596:	82 0f       	add	r24, r18
    1598:	93 1f       	adc	r25, r19
    159a:	03 96       	adiw	r24, 0x03	; 3
    159c:	8c 53       	subi	r24, 0x3C	; 60
    159e:	9f 4f       	sbci	r25, 0xFF	; 255
    15a0:	9b 8b       	std	Y+19, r25	; 0x13
    15a2:	8a 8b       	std	Y+18, r24	; 0x12
    15a4:	8a 89       	ldd	r24, Y+18	; 0x12
    15a6:	9b 89       	ldd	r25, Y+19	; 0x13
    15a8:	8c 01       	movw	r16, r24
    15aa:	f8 01       	movw	r30, r16
    15ac:	e5 90       	lpm	r14, Z+
    15ae:	f4 90       	lpm	r15, Z+
    15b0:	8f 01       	movw	r16, r30
    15b2:	fd 8a       	std	Y+21, r15	; 0x15
    15b4:	ec 8a       	std	Y+20, r14	; 0x14
    15b6:	1b 8b       	std	Y+19, r17	; 0x13
    15b8:	0a 8b       	std	Y+18, r16	; 0x12
    15ba:	8c 89       	ldd	r24, Y+20	; 0x14
    15bc:	9d 89       	ldd	r25, Y+21	; 0x15
    15be:	9e 83       	std	Y+6, r25	; 0x06
    15c0:	8d 83       	std	Y+5, r24	; 0x05
		}
		 
		if (nextstate != OS_CURRENT_STATE)  // il y a changement d'tat 
		{
			OS_CURRENT_STATE = nextstate; // l'tat est maintenant le nouvel tat de la squence dfinie dans main.h
			for (i=0; (j=pgm_read_byte(&Menu_State[i].state)); i++)
    15c2:	8f 81       	ldd	r24, Y+7	; 0x07
    15c4:	8f 5f       	subi	r24, 0xFF	; 255
    15c6:	8f 83       	std	Y+7, r24	; 0x07
    15c8:	8f 81       	ldd	r24, Y+7	; 0x07
    15ca:	28 2f       	mov	r18, r24
    15cc:	30 e0       	ldi	r19, 0x00	; 0
    15ce:	c9 01       	movw	r24, r18
    15d0:	88 0f       	add	r24, r24
    15d2:	99 1f       	adc	r25, r25
    15d4:	88 0f       	add	r24, r24
    15d6:	99 1f       	adc	r25, r25
    15d8:	82 0f       	add	r24, r18
    15da:	93 1f       	adc	r25, r19
    15dc:	8c 53       	subi	r24, 0x3C	; 60
    15de:	9f 4f       	sbci	r25, 0xFF	; 255
    15e0:	9c 87       	std	Y+12, r25	; 0x0c
    15e2:	8b 87       	std	Y+11, r24	; 0x0b
    15e4:	8b 85       	ldd	r24, Y+11	; 0x0b
    15e6:	9c 85       	ldd	r25, Y+12	; 0x0c
    15e8:	fc 01       	movw	r30, r24
    15ea:	14 91       	lpm	r17, Z+
    15ec:	1d 87       	std	Y+13, r17	; 0x0d
    15ee:	8d 85       	ldd	r24, Y+13	; 0x0d
    15f0:	88 2f       	mov	r24, r24
    15f2:	90 e0       	ldi	r25, 0x00	; 0
    15f4:	99 87       	std	Y+9, r25	; 0x09
    15f6:	88 87       	std	Y+8, r24	; 0x08
    15f8:	88 85       	ldd	r24, Y+8	; 0x08
    15fa:	99 85       	ldd	r25, Y+9	; 0x09
    15fc:	00 97       	sbiw	r24, 0x00	; 0
    15fe:	09 f0       	breq	.+2      	; 0x1602 <OS_start+0x234>
    1600:	9a cf       	rjmp	.-204    	; 0x1536 <OS_start+0x168>
					//break;
				}
			}
		}		
		
	}     
    1602:	06 cf       	rjmp	.-500    	; 0x1410 <OS_start+0x42>

00001604 <OS_stateMachine>:
}

unsigned char OS_stateMachine(char state, unsigned char stimuli)
{
    1604:	1f 93       	push	r17
    1606:	df 93       	push	r29
    1608:	cf 93       	push	r28
    160a:	cd b7       	in	r28, 0x3d	; 61
    160c:	de b7       	in	r29, 0x3e	; 62
    160e:	2e 97       	sbiw	r28, 0x0e	; 14
    1610:	0f b6       	in	r0, 0x3f	; 63
    1612:	f8 94       	cli
    1614:	de bf       	out	0x3e, r29	; 62
    1616:	0f be       	out	0x3f, r0	; 63
    1618:	cd bf       	out	0x3d, r28	; 61
    161a:	8d 87       	std	Y+13, r24	; 0x0d
    161c:	6e 87       	std	Y+14, r22	; 0x0e
    unsigned char nextstate = state;    // Default stay in same state
    161e:	8d 85       	ldd	r24, Y+13	; 0x0d
    1620:	89 83       	std	Y+1, r24	; 0x01
    unsigned char i, j;
    for (i=0; ( j=pgm_read_byte(&Menu_Nextstate[i].state) ); i++ )
    1622:	1a 82       	std	Y+2, r1	; 0x02
    1624:	32 c0       	rjmp	.+100    	; 0x168a <OS_stateMachine+0x86>
    {
        if ( j == state && 
    1626:	9e 81       	ldd	r25, Y+6	; 0x06
    1628:	8d 85       	ldd	r24, Y+13	; 0x0d
    162a:	98 17       	cp	r25, r24
    162c:	59 f5       	brne	.+86     	; 0x1684 <OS_stateMachine+0x80>
             pgm_read_byte(&Menu_Nextstate[i].input) == stimuli)
    162e:	8a 81       	ldd	r24, Y+2	; 0x02
    1630:	28 2f       	mov	r18, r24
    1632:	30 e0       	ldi	r19, 0x00	; 0
    1634:	c9 01       	movw	r24, r18
    1636:	88 0f       	add	r24, r24
    1638:	99 1f       	adc	r25, r25
    163a:	82 0f       	add	r24, r18
    163c:	93 1f       	adc	r25, r19
    163e:	01 96       	adiw	r24, 0x01	; 1
    1640:	85 50       	subi	r24, 0x05	; 5
    1642:	9f 4f       	sbci	r25, 0xFF	; 255
    1644:	98 87       	std	Y+8, r25	; 0x08
    1646:	8f 83       	std	Y+7, r24	; 0x07
    1648:	8f 81       	ldd	r24, Y+7	; 0x07
    164a:	98 85       	ldd	r25, Y+8	; 0x08
    164c:	fc 01       	movw	r30, r24
    164e:	14 91       	lpm	r17, Z+
    1650:	19 87       	std	Y+9, r17	; 0x09
    1652:	99 85       	ldd	r25, Y+9	; 0x09
{
    unsigned char nextstate = state;    // Default stay in same state
    unsigned char i, j;
    for (i=0; ( j=pgm_read_byte(&Menu_Nextstate[i].state) ); i++ )
    {
        if ( j == state && 
    1654:	8e 85       	ldd	r24, Y+14	; 0x0e
    1656:	98 17       	cp	r25, r24
    1658:	a9 f4       	brne	.+42     	; 0x1684 <OS_stateMachine+0x80>
             pgm_read_byte(&Menu_Nextstate[i].input) == stimuli)
        {
            // This is the one!
            nextstate = pgm_read_byte(&Menu_Nextstate[i].nextstate);
    165a:	8a 81       	ldd	r24, Y+2	; 0x02
    165c:	28 2f       	mov	r18, r24
    165e:	30 e0       	ldi	r19, 0x00	; 0
    1660:	c9 01       	movw	r24, r18
    1662:	88 0f       	add	r24, r24
    1664:	99 1f       	adc	r25, r25
    1666:	82 0f       	add	r24, r18
    1668:	93 1f       	adc	r25, r19
    166a:	02 96       	adiw	r24, 0x02	; 2
    166c:	85 50       	subi	r24, 0x05	; 5
    166e:	9f 4f       	sbci	r25, 0xFF	; 255
    1670:	9b 87       	std	Y+11, r25	; 0x0b
    1672:	8a 87       	std	Y+10, r24	; 0x0a
    1674:	8a 85       	ldd	r24, Y+10	; 0x0a
    1676:	9b 85       	ldd	r25, Y+11	; 0x0b
    1678:	fc 01       	movw	r30, r24
    167a:	14 91       	lpm	r17, Z+
    167c:	1c 87       	std	Y+12, r17	; 0x0c
    167e:	8c 85       	ldd	r24, Y+12	; 0x0c
    1680:	89 83       	std	Y+1, r24	; 0x01
            break;
    1682:	1a c0       	rjmp	.+52     	; 0x16b8 <OS_stateMachine+0xb4>

unsigned char OS_stateMachine(char state, unsigned char stimuli)
{
    unsigned char nextstate = state;    // Default stay in same state
    unsigned char i, j;
    for (i=0; ( j=pgm_read_byte(&Menu_Nextstate[i].state) ); i++ )
    1684:	8a 81       	ldd	r24, Y+2	; 0x02
    1686:	8f 5f       	subi	r24, 0xFF	; 255
    1688:	8a 83       	std	Y+2, r24	; 0x02
    168a:	8a 81       	ldd	r24, Y+2	; 0x02
    168c:	28 2f       	mov	r18, r24
    168e:	30 e0       	ldi	r19, 0x00	; 0
    1690:	c9 01       	movw	r24, r18
    1692:	88 0f       	add	r24, r24
    1694:	99 1f       	adc	r25, r25
    1696:	82 0f       	add	r24, r18
    1698:	93 1f       	adc	r25, r19
    169a:	85 50       	subi	r24, 0x05	; 5
    169c:	9f 4f       	sbci	r25, 0xFF	; 255
    169e:	9c 83       	std	Y+4, r25	; 0x04
    16a0:	8b 83       	std	Y+3, r24	; 0x03
    16a2:	8b 81       	ldd	r24, Y+3	; 0x03
    16a4:	9c 81       	ldd	r25, Y+4	; 0x04
    16a6:	fc 01       	movw	r30, r24
    16a8:	14 91       	lpm	r17, Z+
    16aa:	1d 83       	std	Y+5, r17	; 0x05
    16ac:	8d 81       	ldd	r24, Y+5	; 0x05
    16ae:	8e 83       	std	Y+6, r24	; 0x06
    16b0:	8e 81       	ldd	r24, Y+6	; 0x06
    16b2:	88 23       	and	r24, r24
    16b4:	09 f0       	breq	.+2      	; 0x16b8 <OS_stateMachine+0xb4>
    16b6:	b7 cf       	rjmp	.-146    	; 0x1626 <OS_stateMachine+0x22>
            // This is the one!
            nextstate = pgm_read_byte(&Menu_Nextstate[i].nextstate);
            break;
        }
    }
    return nextstate;
    16b8:	89 81       	ldd	r24, Y+1	; 0x01
}
    16ba:	2e 96       	adiw	r28, 0x0e	; 14
    16bc:	0f b6       	in	r0, 0x3f	; 63
    16be:	f8 94       	cli
    16c0:	de bf       	out	0x3e, r29	; 62
    16c2:	0f be       	out	0x3f, r0	; 63
    16c4:	cd bf       	out	0x3d, r28	; 61
    16c6:	cf 91       	pop	r28
    16c8:	df 91       	pop	r29
    16ca:	1f 91       	pop	r17
    16cc:	08 95       	ret

000016ce <OS_addTimerCallback>:


unsigned char OS_addTimerCallback(void(*ptFonction)(void), unsigned int period)
{
    16ce:	df 93       	push	r29
    16d0:	cf 93       	push	r28
    16d2:	00 d0       	rcall	.+0      	; 0x16d4 <OS_addTimerCallback+0x6>
    16d4:	00 d0       	rcall	.+0      	; 0x16d6 <OS_addTimerCallback+0x8>
    16d6:	00 d0       	rcall	.+0      	; 0x16d8 <OS_addTimerCallback+0xa>
    16d8:	cd b7       	in	r28, 0x3d	; 61
    16da:	de b7       	in	r29, 0x3e	; 62
    16dc:	9c 83       	std	Y+4, r25	; 0x04
    16de:	8b 83       	std	Y+3, r24	; 0x03
    16e0:	7e 83       	std	Y+6, r23	; 0x06
    16e2:	6d 83       	std	Y+5, r22	; 0x05
	unsigned int i=1; //Attention ,on commence  1 (IDCB = 0 --> callback non enregistre)
    16e4:	81 e0       	ldi	r24, 0x01	; 1
    16e6:	90 e0       	ldi	r25, 0x00	; 0
    16e8:	9a 83       	std	Y+2, r25	; 0x02
    16ea:	89 83       	std	Y+1, r24	; 0x01
	 
 	while (TIMER_CB_FUNC[i]!=0 && i<TIMER_CB_MAX) i++;
    16ec:	05 c0       	rjmp	.+10     	; 0x16f8 <OS_addTimerCallback+0x2a>
    16ee:	89 81       	ldd	r24, Y+1	; 0x01
    16f0:	9a 81       	ldd	r25, Y+2	; 0x02
    16f2:	01 96       	adiw	r24, 0x01	; 1
    16f4:	9a 83       	std	Y+2, r25	; 0x02
    16f6:	89 83       	std	Y+1, r24	; 0x01
    16f8:	89 81       	ldd	r24, Y+1	; 0x01
    16fa:	9a 81       	ldd	r25, Y+2	; 0x02
    16fc:	88 0f       	add	r24, r24
    16fe:	99 1f       	adc	r25, r25
    1700:	86 57       	subi	r24, 0x76	; 118
    1702:	9e 4f       	sbci	r25, 0xFE	; 254
    1704:	fc 01       	movw	r30, r24
    1706:	80 81       	ld	r24, Z
    1708:	91 81       	ldd	r25, Z+1	; 0x01
    170a:	00 97       	sbiw	r24, 0x00	; 0
    170c:	29 f0       	breq	.+10     	; 0x1718 <OS_addTimerCallback+0x4a>
    170e:	89 81       	ldd	r24, Y+1	; 0x01
    1710:	9a 81       	ldd	r25, Y+2	; 0x02
    1712:	8a 30       	cpi	r24, 0x0A	; 10
    1714:	91 05       	cpc	r25, r1
    1716:	58 f3       	brcs	.-42     	; 0x16ee <OS_addTimerCallback+0x20>
	
	// S'il reste de la place on enregistre et on retourne l'id du callback
 	if (i<TIMER_CB_MAX)
    1718:	89 81       	ldd	r24, Y+1	; 0x01
    171a:	9a 81       	ldd	r25, Y+2	; 0x02
    171c:	8a 30       	cpi	r24, 0x0A	; 10
    171e:	91 05       	cpc	r25, r1
    1720:	08 f5       	brcc	.+66     	; 0x1764 <OS_addTimerCallback+0x96>
 	{
  		 TIMER_CB_FUNC[i] = ptFonction;
    1722:	89 81       	ldd	r24, Y+1	; 0x01
    1724:	9a 81       	ldd	r25, Y+2	; 0x02
    1726:	88 0f       	add	r24, r24
    1728:	99 1f       	adc	r25, r25
    172a:	86 57       	subi	r24, 0x76	; 118
    172c:	9e 4f       	sbci	r25, 0xFE	; 254
    172e:	2b 81       	ldd	r18, Y+3	; 0x03
    1730:	3c 81       	ldd	r19, Y+4	; 0x04
    1732:	fc 01       	movw	r30, r24
    1734:	31 83       	std	Z+1, r19	; 0x01
    1736:	20 83       	st	Z, r18
  		 TIMER_CB_TIME[i] = period; 
    1738:	89 81       	ldd	r24, Y+1	; 0x01
    173a:	9a 81       	ldd	r25, Y+2	; 0x02
    173c:	88 0f       	add	r24, r24
    173e:	99 1f       	adc	r25, r25
    1740:	8a 58       	subi	r24, 0x8A	; 138
    1742:	9e 4f       	sbci	r25, 0xFE	; 254
    1744:	2d 81       	ldd	r18, Y+5	; 0x05
    1746:	3e 81       	ldd	r19, Y+6	; 0x06
    1748:	fc 01       	movw	r30, r24
    174a:	31 83       	std	Z+1, r19	; 0x01
    174c:	20 83       	st	Z, r18
  		 TIMER_CB_TICK[i] = 0; //Initialiser le compteur  0;
    174e:	89 81       	ldd	r24, Y+1	; 0x01
    1750:	9a 81       	ldd	r25, Y+2	; 0x02
    1752:	88 0f       	add	r24, r24
    1754:	99 1f       	adc	r25, r25
    1756:	8f 59       	subi	r24, 0x9F	; 159
    1758:	9e 4f       	sbci	r25, 0xFE	; 254
    175a:	fc 01       	movw	r30, r24
    175c:	11 82       	std	Z+1, r1	; 0x01
    175e:	10 82       	st	Z, r1
   	     return i; // ID du call back
    1760:	89 81       	ldd	r24, Y+1	; 0x01
    1762:	01 c0       	rjmp	.+2      	; 0x1766 <OS_addTimerCallback+0x98>
  	}
 	else return 255; //Il n'y a plus de place pour enregistrer un callback
    1764:	8f ef       	ldi	r24, 0xFF	; 255
}
    1766:	26 96       	adiw	r28, 0x06	; 6
    1768:	0f b6       	in	r0, 0x3f	; 63
    176a:	f8 94       	cli
    176c:	de bf       	out	0x3e, r29	; 62
    176e:	0f be       	out	0x3f, r0	; 63
    1770:	cd bf       	out	0x3d, r28	; 61
    1772:	cf 91       	pop	r28
    1774:	df 91       	pop	r29
    1776:	08 95       	ret

00001778 <OS_removeTimerCallback>:

unsigned char OS_removeTimerCallback(unsigned char CB_ID)
{
    1778:	df 93       	push	r29
    177a:	cf 93       	push	r28
    177c:	0f 92       	push	r0
    177e:	cd b7       	in	r28, 0x3d	; 61
    1780:	de b7       	in	r29, 0x3e	; 62
    1782:	89 83       	std	Y+1, r24	; 0x01
   	TIMER_CB_FUNC[CB_ID] = 0;
    1784:	89 81       	ldd	r24, Y+1	; 0x01
    1786:	88 2f       	mov	r24, r24
    1788:	90 e0       	ldi	r25, 0x00	; 0
    178a:	88 0f       	add	r24, r24
    178c:	99 1f       	adc	r25, r25
    178e:	86 57       	subi	r24, 0x76	; 118
    1790:	9e 4f       	sbci	r25, 0xFE	; 254
    1792:	fc 01       	movw	r30, r24
    1794:	11 82       	std	Z+1, r1	; 0x01
    1796:	10 82       	st	Z, r1
  	TIMER_CB_TIME[CB_ID] = 0;
    1798:	89 81       	ldd	r24, Y+1	; 0x01
    179a:	88 2f       	mov	r24, r24
    179c:	90 e0       	ldi	r25, 0x00	; 0
    179e:	88 0f       	add	r24, r24
    17a0:	99 1f       	adc	r25, r25
    17a2:	8a 58       	subi	r24, 0x8A	; 138
    17a4:	9e 4f       	sbci	r25, 0xFE	; 254
    17a6:	fc 01       	movw	r30, r24
    17a8:	11 82       	std	Z+1, r1	; 0x01
    17aa:	10 82       	st	Z, r1
	TIMER_CB_TICK[CB_ID] = 0;
    17ac:	89 81       	ldd	r24, Y+1	; 0x01
    17ae:	88 2f       	mov	r24, r24
    17b0:	90 e0       	ldi	r25, 0x00	; 0
    17b2:	88 0f       	add	r24, r24
    17b4:	99 1f       	adc	r25, r25
    17b6:	8f 59       	subi	r24, 0x9F	; 159
    17b8:	9e 4f       	sbci	r25, 0xFE	; 254
    17ba:	fc 01       	movw	r30, r24
    17bc:	11 82       	std	Z+1, r1	; 0x01
    17be:	10 82       	st	Z, r1
	return 0;
    17c0:	80 e0       	ldi	r24, 0x00	; 0
}
    17c2:	0f 90       	pop	r0
    17c4:	cf 91       	pop	r28
    17c6:	df 91       	pop	r29
    17c8:	08 95       	ret

000017ca <OS_updateCallbackTime>:

unsigned char OS_updateCallbackTime(unsigned char CB_ID,unsigned int time)
{
    17ca:	df 93       	push	r29
    17cc:	cf 93       	push	r28
    17ce:	00 d0       	rcall	.+0      	; 0x17d0 <OS_updateCallbackTime+0x6>
    17d0:	0f 92       	push	r0
    17d2:	cd b7       	in	r28, 0x3d	; 61
    17d4:	de b7       	in	r29, 0x3e	; 62
    17d6:	89 83       	std	Y+1, r24	; 0x01
    17d8:	7b 83       	std	Y+3, r23	; 0x03
    17da:	6a 83       	std	Y+2, r22	; 0x02
	TIMER_CB_TIME[CB_ID] = time;
    17dc:	89 81       	ldd	r24, Y+1	; 0x01
    17de:	88 2f       	mov	r24, r24
    17e0:	90 e0       	ldi	r25, 0x00	; 0
    17e2:	88 0f       	add	r24, r24
    17e4:	99 1f       	adc	r25, r25
    17e6:	8a 58       	subi	r24, 0x8A	; 138
    17e8:	9e 4f       	sbci	r25, 0xFE	; 254
    17ea:	2a 81       	ldd	r18, Y+2	; 0x02
    17ec:	3b 81       	ldd	r19, Y+3	; 0x03
    17ee:	fc 01       	movw	r30, r24
    17f0:	31 83       	std	Z+1, r19	; 0x01
    17f2:	20 83       	st	Z, r18
}	
    17f4:	0f 90       	pop	r0
    17f6:	0f 90       	pop	r0
    17f8:	0f 90       	pop	r0
    17fa:	cf 91       	pop	r28
    17fc:	df 91       	pop	r29
    17fe:	08 95       	ret

00001800 <__vector_7>:

ISR(TIMER2_COMPA_vect)
{
    1800:	1f 92       	push	r1
    1802:	0f 92       	push	r0
    1804:	0f b6       	in	r0, 0x3f	; 63
    1806:	0f 92       	push	r0
    1808:	11 24       	eor	r1, r1
    180a:	2f 93       	push	r18
    180c:	3f 93       	push	r19
    180e:	8f 93       	push	r24
    1810:	9f 93       	push	r25
    1812:	ef 93       	push	r30
    1814:	ff 93       	push	r31
    1816:	df 93       	push	r29
    1818:	cf 93       	push	r28
    181a:	00 d0       	rcall	.+0      	; 0x181c <__vector_7+0x1c>
    181c:	0f 92       	push	r0
    181e:	cd b7       	in	r28, 0x3d	; 61
    1820:	de b7       	in	r29, 0x3e	; 62
	cli();
    1822:	f8 94       	cli
	
	unsigned int j=1; //Attention ,on commence  1 (IDCB = 0 --> callback non enregistre)
    1824:	81 e0       	ldi	r24, 0x01	; 1
    1826:	90 e0       	ldi	r25, 0x00	; 0
    1828:	9a 83       	std	Y+2, r25	; 0x02
    182a:	89 83       	std	Y+1, r24	; 0x01
	while (TIMER_CB_FUNC[j]!=0 && j<TIMER_CB_MAX) j++;
    182c:	05 c0       	rjmp	.+10     	; 0x1838 <__vector_7+0x38>
    182e:	89 81       	ldd	r24, Y+1	; 0x01
    1830:	9a 81       	ldd	r25, Y+2	; 0x02
    1832:	01 96       	adiw	r24, 0x01	; 1
    1834:	9a 83       	std	Y+2, r25	; 0x02
    1836:	89 83       	std	Y+1, r24	; 0x01
    1838:	89 81       	ldd	r24, Y+1	; 0x01
    183a:	9a 81       	ldd	r25, Y+2	; 0x02
    183c:	88 0f       	add	r24, r24
    183e:	99 1f       	adc	r25, r25
    1840:	86 57       	subi	r24, 0x76	; 118
    1842:	9e 4f       	sbci	r25, 0xFE	; 254
    1844:	fc 01       	movw	r30, r24
    1846:	80 81       	ld	r24, Z
    1848:	91 81       	ldd	r25, Z+1	; 0x01
    184a:	00 97       	sbiw	r24, 0x00	; 0
    184c:	29 f0       	breq	.+10     	; 0x1858 <__vector_7+0x58>
    184e:	89 81       	ldd	r24, Y+1	; 0x01
    1850:	9a 81       	ldd	r25, Y+2	; 0x02
    1852:	8a 30       	cpi	r24, 0x0A	; 10
    1854:	91 05       	cpc	r25, r1
    1856:	58 f3       	brcs	.-42     	; 0x182e <__vector_7+0x2e>
	
	unsigned char i;
  	for (i = 0; i < j; i++) TIMER_CB_TICK[i]++;
    1858:	1b 82       	std	Y+3, r1	; 0x03
    185a:	17 c0       	rjmp	.+46     	; 0x188a <__vector_7+0x8a>
    185c:	8b 81       	ldd	r24, Y+3	; 0x03
    185e:	88 2f       	mov	r24, r24
    1860:	90 e0       	ldi	r25, 0x00	; 0
    1862:	9c 01       	movw	r18, r24
    1864:	22 0f       	add	r18, r18
    1866:	33 1f       	adc	r19, r19
    1868:	2f 59       	subi	r18, 0x9F	; 159
    186a:	3e 4f       	sbci	r19, 0xFE	; 254
    186c:	f9 01       	movw	r30, r18
    186e:	20 81       	ld	r18, Z
    1870:	31 81       	ldd	r19, Z+1	; 0x01
    1872:	2f 5f       	subi	r18, 0xFF	; 255
    1874:	3f 4f       	sbci	r19, 0xFF	; 255
    1876:	88 0f       	add	r24, r24
    1878:	99 1f       	adc	r25, r25
    187a:	8f 59       	subi	r24, 0x9F	; 159
    187c:	9e 4f       	sbci	r25, 0xFE	; 254
    187e:	fc 01       	movw	r30, r24
    1880:	31 83       	std	Z+1, r19	; 0x01
    1882:	20 83       	st	Z, r18
    1884:	8b 81       	ldd	r24, Y+3	; 0x03
    1886:	8f 5f       	subi	r24, 0xFF	; 255
    1888:	8b 83       	std	Y+3, r24	; 0x03
    188a:	8b 81       	ldd	r24, Y+3	; 0x03
    188c:	28 2f       	mov	r18, r24
    188e:	30 e0       	ldi	r19, 0x00	; 0
    1890:	89 81       	ldd	r24, Y+1	; 0x01
    1892:	9a 81       	ldd	r25, Y+2	; 0x02
    1894:	28 17       	cp	r18, r24
    1896:	39 07       	cpc	r19, r25
    1898:	08 f3       	brcs	.-62     	; 0x185c <__vector_7+0x5c>

	sei();
    189a:	78 94       	sei
}
    189c:	23 96       	adiw	r28, 0x03	; 3
    189e:	de bf       	out	0x3e, r29	; 62
    18a0:	cd bf       	out	0x3d, r28	; 61
    18a2:	cf 91       	pop	r28
    18a4:	df 91       	pop	r29
    18a6:	ff 91       	pop	r31
    18a8:	ef 91       	pop	r30
    18aa:	9f 91       	pop	r25
    18ac:	8f 91       	pop	r24
    18ae:	3f 91       	pop	r19
    18b0:	2f 91       	pop	r18
    18b2:	0f 90       	pop	r0
    18b4:	0f be       	out	0x3f, r0	; 63
    18b6:	0f 90       	pop	r0
    18b8:	1f 90       	pop	r1
    18ba:	18 95       	reti

000018bc <SPI_init>:
//unsigned int frame = 0;
unsigned char count = 0;
int temp = 0;

void SPI_init(unsigned char nbit)
{
    18bc:	df 93       	push	r29
    18be:	cf 93       	push	r28
    18c0:	0f 92       	push	r0
    18c2:	cd b7       	in	r28, 0x3d	; 61
    18c4:	de b7       	in	r29, 0x3e	; 62
    18c6:	89 83       	std	Y+1, r24	; 0x01
	// configured as a master (MSTR in SPCR)
	// SS pin configured as output
	nbits = nbit;
    18c8:	89 81       	ldd	r24, Y+1	; 0x01
    18ca:	80 93 16 01 	sts	0x0116, r24
	
	sbiBF(SPI_DDR,SPI_SS);
    18ce:	84 e2       	ldi	r24, 0x24	; 36
    18d0:	90 e0       	ldi	r25, 0x00	; 0
    18d2:	24 e2       	ldi	r18, 0x24	; 36
    18d4:	30 e0       	ldi	r19, 0x00	; 0
    18d6:	f9 01       	movw	r30, r18
    18d8:	20 81       	ld	r18, Z
    18da:	24 60       	ori	r18, 0x04	; 4
    18dc:	fc 01       	movw	r30, r24
    18de:	20 83       	st	Z, r18
	sbiBF(SPI_PORT,SPI_SS);
    18e0:	85 e2       	ldi	r24, 0x25	; 37
    18e2:	90 e0       	ldi	r25, 0x00	; 0
    18e4:	25 e2       	ldi	r18, 0x25	; 37
    18e6:	30 e0       	ldi	r19, 0x00	; 0
    18e8:	f9 01       	movw	r30, r18
    18ea:	20 81       	ld	r18, Z
    18ec:	24 60       	ori	r18, 0x04	; 4
    18ee:	fc 01       	movw	r30, r24
    18f0:	20 83       	st	Z, r18
	
	sbiBF(SPI_DDR,SPI_SCK);
    18f2:	84 e2       	ldi	r24, 0x24	; 36
    18f4:	90 e0       	ldi	r25, 0x00	; 0
    18f6:	24 e2       	ldi	r18, 0x24	; 36
    18f8:	30 e0       	ldi	r19, 0x00	; 0
    18fa:	f9 01       	movw	r30, r18
    18fc:	20 81       	ld	r18, Z
    18fe:	20 62       	ori	r18, 0x20	; 32
    1900:	fc 01       	movw	r30, r24
    1902:	20 83       	st	Z, r18
	cbiBF(SPI_PORT,SPI_SCK);
    1904:	85 e2       	ldi	r24, 0x25	; 37
    1906:	90 e0       	ldi	r25, 0x00	; 0
    1908:	25 e2       	ldi	r18, 0x25	; 37
    190a:	30 e0       	ldi	r19, 0x00	; 0
    190c:	f9 01       	movw	r30, r18
    190e:	20 81       	ld	r18, Z
    1910:	2f 7d       	andi	r18, 0xDF	; 223
    1912:	fc 01       	movw	r30, r24
    1914:	20 83       	st	Z, r18
	
	cbiBF(SPI_DDR,SPI_MISO);
    1916:	84 e2       	ldi	r24, 0x24	; 36
    1918:	90 e0       	ldi	r25, 0x00	; 0
    191a:	24 e2       	ldi	r18, 0x24	; 36
    191c:	30 e0       	ldi	r19, 0x00	; 0
    191e:	f9 01       	movw	r30, r18
    1920:	20 81       	ld	r18, Z
    1922:	2f 7e       	andi	r18, 0xEF	; 239
    1924:	fc 01       	movw	r30, r24
    1926:	20 83       	st	Z, r18
	
	SPCR = (1<<SPIE)|(0<<SPE)|(1<<MSTR)|(SPI_CPOL<<CPOL)|(SPI_CPHA<<CPHA)|(1<<SPR1);
    1928:	8c e4       	ldi	r24, 0x4C	; 76
    192a:	90 e0       	ldi	r25, 0x00	; 0
    192c:	22 e9       	ldi	r18, 0x92	; 146
    192e:	fc 01       	movw	r30, r24
    1930:	20 83       	st	Z, r18
	
	count = (nbits/8)-1;
    1932:	80 91 16 01 	lds	r24, 0x0116
    1936:	86 95       	lsr	r24
    1938:	86 95       	lsr	r24
    193a:	86 95       	lsr	r24
    193c:	81 50       	subi	r24, 0x01	; 1
    193e:	80 93 54 01 	sts	0x0154, r24
	frame = 0;	
    1942:	10 92 50 01 	sts	0x0150, r1
    1946:	10 92 51 01 	sts	0x0151, r1
    194a:	10 92 52 01 	sts	0x0152, r1
    194e:	10 92 53 01 	sts	0x0153, r1
}
    1952:	0f 90       	pop	r0
    1954:	cf 91       	pop	r28
    1956:	df 91       	pop	r29
    1958:	08 95       	ret

0000195a <SPI_start>:

void SPI_start()
{
    195a:	df 93       	push	r29
    195c:	cf 93       	push	r28
    195e:	cd b7       	in	r28, 0x3d	; 61
    1960:	de b7       	in	r29, 0x3e	; 62
	frame = 0;
    1962:	10 92 50 01 	sts	0x0150, r1
    1966:	10 92 51 01 	sts	0x0151, r1
    196a:	10 92 52 01 	sts	0x0152, r1
    196e:	10 92 53 01 	sts	0x0153, r1
	sbiBF(SPCR,SPE);
    1972:	8c e4       	ldi	r24, 0x4C	; 76
    1974:	90 e0       	ldi	r25, 0x00	; 0
    1976:	2c e4       	ldi	r18, 0x4C	; 76
    1978:	30 e0       	ldi	r19, 0x00	; 0
    197a:	f9 01       	movw	r30, r18
    197c:	20 81       	ld	r18, Z
    197e:	20 64       	ori	r18, 0x40	; 64
    1980:	fc 01       	movw	r30, r24
    1982:	20 83       	st	Z, r18
	cbiBF(SPI_PORT,SPI_SS);
    1984:	85 e2       	ldi	r24, 0x25	; 37
    1986:	90 e0       	ldi	r25, 0x00	; 0
    1988:	25 e2       	ldi	r18, 0x25	; 37
    198a:	30 e0       	ldi	r19, 0x00	; 0
    198c:	f9 01       	movw	r30, r18
    198e:	20 81       	ld	r18, Z
    1990:	2b 7f       	andi	r18, 0xFB	; 251
    1992:	fc 01       	movw	r30, r24
    1994:	20 83       	st	Z, r18
	SPDR = 0x55;
    1996:	8e e4       	ldi	r24, 0x4E	; 78
    1998:	90 e0       	ldi	r25, 0x00	; 0
    199a:	25 e5       	ldi	r18, 0x55	; 85
    199c:	fc 01       	movw	r30, r24
    199e:	20 83       	st	Z, r18
}
    19a0:	cf 91       	pop	r28
    19a2:	df 91       	pop	r29
    19a4:	08 95       	ret

000019a6 <SPI_getFrame>:

uint32_t SPI_getFrame()
{
    19a6:	df 93       	push	r29
    19a8:	cf 93       	push	r28
    19aa:	cd b7       	in	r28, 0x3d	; 61
    19ac:	de b7       	in	r29, 0x3e	; 62
	return frame;
    19ae:	80 91 50 01 	lds	r24, 0x0150
    19b2:	90 91 51 01 	lds	r25, 0x0151
    19b6:	a0 91 52 01 	lds	r26, 0x0152
    19ba:	b0 91 53 01 	lds	r27, 0x0153
}
    19be:	bc 01       	movw	r22, r24
    19c0:	cd 01       	movw	r24, r26
    19c2:	cf 91       	pop	r28
    19c4:	df 91       	pop	r29
    19c6:	08 95       	ret

000019c8 <__vector_17>:

ISR(SPI_STC_vect)
{	
    19c8:	1f 92       	push	r1
    19ca:	0f 92       	push	r0
    19cc:	0f b6       	in	r0, 0x3f	; 63
    19ce:	0f 92       	push	r0
    19d0:	11 24       	eor	r1, r1
    19d2:	2f 93       	push	r18
    19d4:	3f 93       	push	r19
    19d6:	4f 93       	push	r20
    19d8:	5f 93       	push	r21
    19da:	6f 93       	push	r22
    19dc:	7f 93       	push	r23
    19de:	8f 93       	push	r24
    19e0:	9f 93       	push	r25
    19e2:	af 93       	push	r26
    19e4:	bf 93       	push	r27
    19e6:	ef 93       	push	r30
    19e8:	ff 93       	push	r31
    19ea:	df 93       	push	r29
    19ec:	cf 93       	push	r28
    19ee:	cd b7       	in	r28, 0x3d	; 61
    19f0:	de b7       	in	r29, 0x3e	; 62
    19f2:	60 97       	sbiw	r28, 0x10	; 16
    19f4:	de bf       	out	0x3e, r29	; 62
    19f6:	cd bf       	out	0x3d, r28	; 61
	frame = (frame<<8) | SPDR;
    19f8:	80 91 50 01 	lds	r24, 0x0150
    19fc:	90 91 51 01 	lds	r25, 0x0151
    1a00:	a0 91 52 01 	lds	r26, 0x0152
    1a04:	b0 91 53 01 	lds	r27, 0x0153
    1a08:	22 27       	eor	r18, r18
    1a0a:	38 2f       	mov	r19, r24
    1a0c:	49 2f       	mov	r20, r25
    1a0e:	5a 2f       	mov	r21, r26
    1a10:	8e e4       	ldi	r24, 0x4E	; 78
    1a12:	90 e0       	ldi	r25, 0x00	; 0
    1a14:	fc 01       	movw	r30, r24
    1a16:	80 81       	ld	r24, Z
    1a18:	88 2f       	mov	r24, r24
    1a1a:	90 e0       	ldi	r25, 0x00	; 0
    1a1c:	a0 e0       	ldi	r26, 0x00	; 0
    1a1e:	b0 e0       	ldi	r27, 0x00	; 0
    1a20:	82 2b       	or	r24, r18
    1a22:	93 2b       	or	r25, r19
    1a24:	a4 2b       	or	r26, r20
    1a26:	b5 2b       	or	r27, r21
    1a28:	80 93 50 01 	sts	0x0150, r24
    1a2c:	90 93 51 01 	sts	0x0151, r25
    1a30:	a0 93 52 01 	sts	0x0152, r26
    1a34:	b0 93 53 01 	sts	0x0153, r27
	if(count==0)
    1a38:	80 91 54 01 	lds	r24, 0x0154
    1a3c:	88 23       	and	r24, r24
    1a3e:	09 f0       	breq	.+2      	; 0x1a42 <__vector_17+0x7a>
    1a40:	40 c0       	rjmp	.+128    	; 0x1ac2 <__vector_17+0xfa>
	{
		sbiBF(SPI_PORT,SPI_SS);
    1a42:	85 e2       	ldi	r24, 0x25	; 37
    1a44:	90 e0       	ldi	r25, 0x00	; 0
    1a46:	25 e2       	ldi	r18, 0x25	; 37
    1a48:	30 e0       	ldi	r19, 0x00	; 0
    1a4a:	f9 01       	movw	r30, r18
    1a4c:	20 81       	ld	r18, Z
    1a4e:	24 60       	ori	r18, 0x04	; 4
    1a50:	fc 01       	movw	r30, r24
    1a52:	20 83       	st	Z, r18
		cbiBF(SPCR,SPE);
    1a54:	8c e4       	ldi	r24, 0x4C	; 76
    1a56:	90 e0       	ldi	r25, 0x00	; 0
    1a58:	2c e4       	ldi	r18, 0x4C	; 76
    1a5a:	30 e0       	ldi	r19, 0x00	; 0
    1a5c:	f9 01       	movw	r30, r18
    1a5e:	20 81       	ld	r18, Z
    1a60:	2f 7b       	andi	r18, 0xBF	; 191
    1a62:	fc 01       	movw	r30, r24
    1a64:	20 83       	st	Z, r18
		count = (nbits/8)-1;
    1a66:	80 91 16 01 	lds	r24, 0x0116
    1a6a:	86 95       	lsr	r24
    1a6c:	86 95       	lsr	r24
    1a6e:	86 95       	lsr	r24
    1a70:	81 50       	subi	r24, 0x01	; 1
    1a72:	80 93 54 01 	sts	0x0154, r24
		char msg[16];
		sprintf(msg,",%d",MAX_getTemp());
    1a76:	0e 94 7d 09 	call	0x12fa	; 0x12fa <MAX_getTemp>
    1a7a:	9c 01       	movw	r18, r24
    1a7c:	00 d0       	rcall	.+0      	; 0x1a7e <__vector_17+0xb6>
    1a7e:	00 d0       	rcall	.+0      	; 0x1a80 <__vector_17+0xb8>
    1a80:	00 d0       	rcall	.+0      	; 0x1a82 <__vector_17+0xba>
    1a82:	8d b7       	in	r24, 0x3d	; 61
    1a84:	9e b7       	in	r25, 0x3e	; 62
    1a86:	01 96       	adiw	r24, 0x01	; 1
    1a88:	ae 01       	movw	r20, r28
    1a8a:	4f 5f       	subi	r20, 0xFF	; 255
    1a8c:	5f 4f       	sbci	r21, 0xFF	; 255
    1a8e:	fc 01       	movw	r30, r24
    1a90:	51 83       	std	Z+1, r21	; 0x01
    1a92:	40 83       	st	Z, r20
    1a94:	47 e1       	ldi	r20, 0x17	; 23
    1a96:	51 e0       	ldi	r21, 0x01	; 1
    1a98:	fc 01       	movw	r30, r24
    1a9a:	53 83       	std	Z+3, r21	; 0x03
    1a9c:	42 83       	std	Z+2, r20	; 0x02
    1a9e:	fc 01       	movw	r30, r24
    1aa0:	35 83       	std	Z+5, r19	; 0x05
    1aa2:	24 83       	std	Z+4, r18	; 0x04
    1aa4:	0e 94 1e 0f 	call	0x1e3c	; 0x1e3c <sprintf>
    1aa8:	8d b7       	in	r24, 0x3d	; 61
    1aaa:	9e b7       	in	r25, 0x3e	; 62
    1aac:	06 96       	adiw	r24, 0x06	; 6
    1aae:	0f b6       	in	r0, 0x3f	; 63
    1ab0:	f8 94       	cli
    1ab2:	9e bf       	out	0x3e, r25	; 62
    1ab4:	0f be       	out	0x3f, r0	; 63
    1ab6:	8d bf       	out	0x3d, r24	; 61
		RS232_print(&msg);
    1ab8:	ce 01       	movw	r24, r28
    1aba:	01 96       	adiw	r24, 0x01	; 1
    1abc:	0e 94 ad 0e 	call	0x1d5a	; 0x1d5a <RS232_print>
    1ac0:	05 c0       	rjmp	.+10     	; 0x1acc <__vector_17+0x104>
	}
	else
		count-=1;
    1ac2:	80 91 54 01 	lds	r24, 0x0154
    1ac6:	81 50       	subi	r24, 0x01	; 1
    1ac8:	80 93 54 01 	sts	0x0154, r24
	SPDR = 0x55;
    1acc:	8e e4       	ldi	r24, 0x4E	; 78
    1ace:	90 e0       	ldi	r25, 0x00	; 0
    1ad0:	25 e5       	ldi	r18, 0x55	; 85
    1ad2:	fc 01       	movw	r30, r24
    1ad4:	20 83       	st	Z, r18
    1ad6:	60 96       	adiw	r28, 0x10	; 16
    1ad8:	de bf       	out	0x3e, r29	; 62
    1ada:	cd bf       	out	0x3d, r28	; 61
    1adc:	cf 91       	pop	r28
    1ade:	df 91       	pop	r29
    1ae0:	ff 91       	pop	r31
    1ae2:	ef 91       	pop	r30
    1ae4:	bf 91       	pop	r27
    1ae6:	af 91       	pop	r26
    1ae8:	9f 91       	pop	r25
    1aea:	8f 91       	pop	r24
    1aec:	7f 91       	pop	r23
    1aee:	6f 91       	pop	r22
    1af0:	5f 91       	pop	r21
    1af2:	4f 91       	pop	r20
    1af4:	3f 91       	pop	r19
    1af6:	2f 91       	pop	r18
    1af8:	0f 90       	pop	r0
    1afa:	0f be       	out	0x3f, r0	; 63
    1afc:	0f 90       	pop	r0
    1afe:	1f 90       	pop	r1
    1b00:	18 95       	reti

00001b02 <CB_TIMER_Init_1ms>:
#include "timers.h"
#include "main.h"

// callback timer2 init
void CB_TIMER_Init_1ms(void)
{
    1b02:	df 93       	push	r29
    1b04:	cf 93       	push	r28
    1b06:	cd b7       	in	r28, 0x3d	; 61
    1b08:	de b7       	in	r29, 0x3e	; 62
	TCCR2A |= (1<<WGM21);	
    1b0a:	80 eb       	ldi	r24, 0xB0	; 176
    1b0c:	90 e0       	ldi	r25, 0x00	; 0
    1b0e:	20 eb       	ldi	r18, 0xB0	; 176
    1b10:	30 e0       	ldi	r19, 0x00	; 0
    1b12:	f9 01       	movw	r30, r18
    1b14:	20 81       	ld	r18, Z
    1b16:	22 60       	ori	r18, 0x02	; 2
    1b18:	fc 01       	movw	r30, r24
    1b1a:	20 83       	st	Z, r18
	TCCR2B |= (1<<CS22) | (0<<CS20);		// mode CTC, prescaler ./64
    1b1c:	81 eb       	ldi	r24, 0xB1	; 177
    1b1e:	90 e0       	ldi	r25, 0x00	; 0
    1b20:	21 eb       	ldi	r18, 0xB1	; 177
    1b22:	30 e0       	ldi	r19, 0x00	; 0
    1b24:	f9 01       	movw	r30, r18
    1b26:	20 81       	ld	r18, Z
    1b28:	24 60       	ori	r18, 0x04	; 4
    1b2a:	fc 01       	movw	r30, r24
    1b2c:	20 83       	st	Z, r18
	// 8us / tick -> 125 tick = 1ms 
	
	OCR2A = 125;
    1b2e:	83 eb       	ldi	r24, 0xB3	; 179
    1b30:	90 e0       	ldi	r25, 0x00	; 0
    1b32:	2d e7       	ldi	r18, 0x7D	; 125
    1b34:	fc 01       	movw	r30, r24
    1b36:	20 83       	st	Z, r18
	
	TIMSK2 |= (1<<OCIE2A);		
    1b38:	80 e7       	ldi	r24, 0x70	; 112
    1b3a:	90 e0       	ldi	r25, 0x00	; 0
    1b3c:	20 e7       	ldi	r18, 0x70	; 112
    1b3e:	30 e0       	ldi	r19, 0x00	; 0
    1b40:	f9 01       	movw	r30, r18
    1b42:	20 81       	ld	r18, Z
    1b44:	22 60       	ori	r18, 0x02	; 2
    1b46:	fc 01       	movw	r30, r24
    1b48:	20 83       	st	Z, r18
}
    1b4a:	cf 91       	pop	r28
    1b4c:	df 91       	pop	r29
    1b4e:	08 95       	ret

00001b50 <PWM_Init>:

// PWM timer0 init
void PWM_Init(unsigned char DC)
{
    1b50:	df 93       	push	r29
    1b52:	cf 93       	push	r28
    1b54:	0f 92       	push	r0
    1b56:	cd b7       	in	r28, 0x3d	; 61
    1b58:	de b7       	in	r29, 0x3e	; 62
    1b5a:	89 83       	std	Y+1, r24	; 0x01
	// pwm frequency ~= 30 Hz
	// output on OC0A PD6
	// fast PWM : WGM = 0b011
	// non inverting mode: COM0A = 0b10
	
	sbiBF(DDRD,PD6); // OC0A as output
    1b5c:	8a e2       	ldi	r24, 0x2A	; 42
    1b5e:	90 e0       	ldi	r25, 0x00	; 0
    1b60:	2a e2       	ldi	r18, 0x2A	; 42
    1b62:	30 e0       	ldi	r19, 0x00	; 0
    1b64:	f9 01       	movw	r30, r18
    1b66:	20 81       	ld	r18, Z
    1b68:	20 64       	ori	r18, 0x40	; 64
    1b6a:	fc 01       	movw	r30, r24
    1b6c:	20 83       	st	Z, r18
	TCCR0A |= (1<<COM0A1)|(1<<WGM01)|(1<<WGM00);
    1b6e:	84 e4       	ldi	r24, 0x44	; 68
    1b70:	90 e0       	ldi	r25, 0x00	; 0
    1b72:	24 e4       	ldi	r18, 0x44	; 68
    1b74:	30 e0       	ldi	r19, 0x00	; 0
    1b76:	f9 01       	movw	r30, r18
    1b78:	20 81       	ld	r18, Z
    1b7a:	23 68       	ori	r18, 0x83	; 131
    1b7c:	fc 01       	movw	r30, r24
    1b7e:	20 83       	st	Z, r18
	// TCCR0B |= (1<<CS02)|(1<<CS00);					// disabled by default
	OCR0A = DC; // default: 0 %	
    1b80:	87 e4       	ldi	r24, 0x47	; 71
    1b82:	90 e0       	ldi	r25, 0x00	; 0
    1b84:	29 81       	ldd	r18, Y+1	; 0x01
    1b86:	fc 01       	movw	r30, r24
    1b88:	20 83       	st	Z, r18
}
    1b8a:	0f 90       	pop	r0
    1b8c:	cf 91       	pop	r28
    1b8e:	df 91       	pop	r29
    1b90:	08 95       	ret

00001b92 <PWM_setDutyCycle>:

void PWM_setDutyCycle(unsigned char DC)
{
    1b92:	df 93       	push	r29
    1b94:	cf 93       	push	r28
    1b96:	0f 92       	push	r0
    1b98:	cd b7       	in	r28, 0x3d	; 61
    1b9a:	de b7       	in	r29, 0x3e	; 62
    1b9c:	89 83       	std	Y+1, r24	; 0x01
	OCR0A = DC;
    1b9e:	87 e4       	ldi	r24, 0x47	; 71
    1ba0:	90 e0       	ldi	r25, 0x00	; 0
    1ba2:	29 81       	ldd	r18, Y+1	; 0x01
    1ba4:	fc 01       	movw	r30, r24
    1ba6:	20 83       	st	Z, r18
}
    1ba8:	0f 90       	pop	r0
    1baa:	cf 91       	pop	r28
    1bac:	df 91       	pop	r29
    1bae:	08 95       	ret

00001bb0 <PWM_enable>:

void PWM_enable(void)
{
    1bb0:	df 93       	push	r29
    1bb2:	cf 93       	push	r28
    1bb4:	cd b7       	in	r28, 0x3d	; 61
    1bb6:	de b7       	in	r29, 0x3e	; 62
    1bb8:	60 97       	sbiw	r28, 0x10	; 16
    1bba:	0f b6       	in	r0, 0x3f	; 63
    1bbc:	f8 94       	cli
    1bbe:	de bf       	out	0x3e, r29	; 62
    1bc0:	0f be       	out	0x3f, r0	; 63
    1bc2:	cd bf       	out	0x3d, r28	; 61
	TCCR0B |= (1<<CS02)|(1<<CS00);
    1bc4:	85 e4       	ldi	r24, 0x45	; 69
    1bc6:	90 e0       	ldi	r25, 0x00	; 0
    1bc8:	25 e4       	ldi	r18, 0x45	; 69
    1bca:	30 e0       	ldi	r19, 0x00	; 0
    1bcc:	f9 01       	movw	r30, r18
    1bce:	20 81       	ld	r18, Z
    1bd0:	25 60       	ori	r18, 0x05	; 5
    1bd2:	fc 01       	movw	r30, r24
    1bd4:	20 83       	st	Z, r18
	char msg[16];
	sprintf(msg,"DC : %d \r\n",PWM_DC);
    1bd6:	80 91 02 01 	lds	r24, 0x0102
    1bda:	28 2f       	mov	r18, r24
    1bdc:	30 e0       	ldi	r19, 0x00	; 0
    1bde:	00 d0       	rcall	.+0      	; 0x1be0 <PWM_enable+0x30>
    1be0:	00 d0       	rcall	.+0      	; 0x1be2 <PWM_enable+0x32>
    1be2:	00 d0       	rcall	.+0      	; 0x1be4 <PWM_enable+0x34>
    1be4:	8d b7       	in	r24, 0x3d	; 61
    1be6:	9e b7       	in	r25, 0x3e	; 62
    1be8:	01 96       	adiw	r24, 0x01	; 1
    1bea:	ae 01       	movw	r20, r28
    1bec:	4f 5f       	subi	r20, 0xFF	; 255
    1bee:	5f 4f       	sbci	r21, 0xFF	; 255
    1bf0:	fc 01       	movw	r30, r24
    1bf2:	51 83       	std	Z+1, r21	; 0x01
    1bf4:	40 83       	st	Z, r20
    1bf6:	4b e1       	ldi	r20, 0x1B	; 27
    1bf8:	51 e0       	ldi	r21, 0x01	; 1
    1bfa:	fc 01       	movw	r30, r24
    1bfc:	53 83       	std	Z+3, r21	; 0x03
    1bfe:	42 83       	std	Z+2, r20	; 0x02
    1c00:	fc 01       	movw	r30, r24
    1c02:	35 83       	std	Z+5, r19	; 0x05
    1c04:	24 83       	std	Z+4, r18	; 0x04
    1c06:	0e 94 1e 0f 	call	0x1e3c	; 0x1e3c <sprintf>
    1c0a:	8d b7       	in	r24, 0x3d	; 61
    1c0c:	9e b7       	in	r25, 0x3e	; 62
    1c0e:	06 96       	adiw	r24, 0x06	; 6
    1c10:	0f b6       	in	r0, 0x3f	; 63
    1c12:	f8 94       	cli
    1c14:	9e bf       	out	0x3e, r25	; 62
    1c16:	0f be       	out	0x3f, r0	; 63
    1c18:	8d bf       	out	0x3d, r24	; 61
}
    1c1a:	60 96       	adiw	r28, 0x10	; 16
    1c1c:	0f b6       	in	r0, 0x3f	; 63
    1c1e:	f8 94       	cli
    1c20:	de bf       	out	0x3e, r29	; 62
    1c22:	0f be       	out	0x3f, r0	; 63
    1c24:	cd bf       	out	0x3d, r28	; 61
    1c26:	cf 91       	pop	r28
    1c28:	df 91       	pop	r29
    1c2a:	08 95       	ret

00001c2c <PWM_disable>:

void PWM_disable(void)
{
    1c2c:	df 93       	push	r29
    1c2e:	cf 93       	push	r28
    1c30:	cd b7       	in	r28, 0x3d	; 61
    1c32:	de b7       	in	r29, 0x3e	; 62
    1c34:	60 97       	sbiw	r28, 0x10	; 16
    1c36:	0f b6       	in	r0, 0x3f	; 63
    1c38:	f8 94       	cli
    1c3a:	de bf       	out	0x3e, r29	; 62
    1c3c:	0f be       	out	0x3f, r0	; 63
    1c3e:	cd bf       	out	0x3d, r28	; 61
	TCCR0B &= ~((1<<CS02)|(1<<CS00));
    1c40:	85 e4       	ldi	r24, 0x45	; 69
    1c42:	90 e0       	ldi	r25, 0x00	; 0
    1c44:	25 e4       	ldi	r18, 0x45	; 69
    1c46:	30 e0       	ldi	r19, 0x00	; 0
    1c48:	f9 01       	movw	r30, r18
    1c4a:	20 81       	ld	r18, Z
    1c4c:	2a 7f       	andi	r18, 0xFA	; 250
    1c4e:	fc 01       	movw	r30, r24
    1c50:	20 83       	st	Z, r18
	cbiBF(PORTD,PD6);
    1c52:	8b e2       	ldi	r24, 0x2B	; 43
    1c54:	90 e0       	ldi	r25, 0x00	; 0
    1c56:	2b e2       	ldi	r18, 0x2B	; 43
    1c58:	30 e0       	ldi	r19, 0x00	; 0
    1c5a:	f9 01       	movw	r30, r18
    1c5c:	20 81       	ld	r18, Z
    1c5e:	2f 7b       	andi	r18, 0xBF	; 191
    1c60:	fc 01       	movw	r30, r24
    1c62:	20 83       	st	Z, r18
	RS232_print("COMMAND Disabled\r\n");
    1c64:	86 e2       	ldi	r24, 0x26	; 38
    1c66:	91 e0       	ldi	r25, 0x01	; 1
    1c68:	0e 94 ad 0e 	call	0x1d5a	; 0x1d5a <RS232_print>
	char msg[16];
	sprintf(msg,"DC : %d \r\n",PWM_DC);
    1c6c:	80 91 02 01 	lds	r24, 0x0102
    1c70:	28 2f       	mov	r18, r24
    1c72:	30 e0       	ldi	r19, 0x00	; 0
    1c74:	00 d0       	rcall	.+0      	; 0x1c76 <PWM_disable+0x4a>
    1c76:	00 d0       	rcall	.+0      	; 0x1c78 <PWM_disable+0x4c>
    1c78:	00 d0       	rcall	.+0      	; 0x1c7a <PWM_disable+0x4e>
    1c7a:	8d b7       	in	r24, 0x3d	; 61
    1c7c:	9e b7       	in	r25, 0x3e	; 62
    1c7e:	01 96       	adiw	r24, 0x01	; 1
    1c80:	ae 01       	movw	r20, r28
    1c82:	4f 5f       	subi	r20, 0xFF	; 255
    1c84:	5f 4f       	sbci	r21, 0xFF	; 255
    1c86:	fc 01       	movw	r30, r24
    1c88:	51 83       	std	Z+1, r21	; 0x01
    1c8a:	40 83       	st	Z, r20
    1c8c:	4b e1       	ldi	r20, 0x1B	; 27
    1c8e:	51 e0       	ldi	r21, 0x01	; 1
    1c90:	fc 01       	movw	r30, r24
    1c92:	53 83       	std	Z+3, r21	; 0x03
    1c94:	42 83       	std	Z+2, r20	; 0x02
    1c96:	fc 01       	movw	r30, r24
    1c98:	35 83       	std	Z+5, r19	; 0x05
    1c9a:	24 83       	std	Z+4, r18	; 0x04
    1c9c:	0e 94 1e 0f 	call	0x1e3c	; 0x1e3c <sprintf>
    1ca0:	8d b7       	in	r24, 0x3d	; 61
    1ca2:	9e b7       	in	r25, 0x3e	; 62
    1ca4:	06 96       	adiw	r24, 0x06	; 6
    1ca6:	0f b6       	in	r0, 0x3f	; 63
    1ca8:	f8 94       	cli
    1caa:	9e bf       	out	0x3e, r25	; 62
    1cac:	0f be       	out	0x3f, r0	; 63
    1cae:	8d bf       	out	0x3d, r24	; 61
	RS232_print(msg);
    1cb0:	ce 01       	movw	r24, r28
    1cb2:	01 96       	adiw	r24, 0x01	; 1
    1cb4:	0e 94 ad 0e 	call	0x1d5a	; 0x1d5a <RS232_print>
    1cb8:	60 96       	adiw	r28, 0x10	; 16
    1cba:	0f b6       	in	r0, 0x3f	; 63
    1cbc:	f8 94       	cli
    1cbe:	de bf       	out	0x3e, r29	; 62
    1cc0:	0f be       	out	0x3f, r0	; 63
    1cc2:	cd bf       	out	0x3d, r28	; 61
    1cc4:	cf 91       	pop	r28
    1cc6:	df 91       	pop	r29
    1cc8:	08 95       	ret

00001cca <RS232_init>:
//PROTOTYPE FONCTIONS INTERNES


//CONTENU FONCTIONS EXTERNES
void RS232_init(int baudrate)
{
    1cca:	df 93       	push	r29
    1ccc:	cf 93       	push	r28
    1cce:	00 d0       	rcall	.+0      	; 0x1cd0 <RS232_init+0x6>
    1cd0:	cd b7       	in	r28, 0x3d	; 61
    1cd2:	de b7       	in	r29, 0x3e	; 62
    1cd4:	9a 83       	std	Y+2, r25	; 0x02
    1cd6:	89 83       	std	Y+1, r24	; 0x01
	//double speed  U2X0 = 1  
	UCSR0A |= (1<<U2X0);
    1cd8:	80 ec       	ldi	r24, 0xC0	; 192
    1cda:	90 e0       	ldi	r25, 0x00	; 0
    1cdc:	20 ec       	ldi	r18, 0xC0	; 192
    1cde:	30 e0       	ldi	r19, 0x00	; 0
    1ce0:	f9 01       	movw	r30, r18
    1ce2:	20 81       	ld	r18, Z
    1ce4:	22 60       	ori	r18, 0x02	; 2
    1ce6:	fc 01       	movw	r30, r24
    1ce8:	20 83       	st	Z, r18
	
	// UBRR0 = F_CPU/(8*BAUD)-1
	//int32_t cpuFrequency = 8000000;
	//UBRR0 = cpuFrequency/(8*baudrate)-1;
	// 9600 baud
	UBRR0 = 103;
    1cea:	84 ec       	ldi	r24, 0xC4	; 196
    1cec:	90 e0       	ldi	r25, 0x00	; 0
    1cee:	27 e6       	ldi	r18, 0x67	; 103
    1cf0:	30 e0       	ldi	r19, 0x00	; 0
    1cf2:	fc 01       	movw	r30, r24
    1cf4:	31 83       	std	Z+1, r19	; 0x01
    1cf6:	20 83       	st	Z, r18

	// Configuration en mission seulement.
	UCSR0B |= (0<<RXCIE0)|(0<<TXCIE0)|(0<<UDRIE0)|(0<<RXEN0)|(1<<TXEN0)|(0<<UCSZ02)|(0<<RXB80)|(0<<TXB80);
    1cf8:	81 ec       	ldi	r24, 0xC1	; 193
    1cfa:	90 e0       	ldi	r25, 0x00	; 0
    1cfc:	21 ec       	ldi	r18, 0xC1	; 193
    1cfe:	30 e0       	ldi	r19, 0x00	; 0
    1d00:	f9 01       	movw	r30, r18
    1d02:	20 81       	ld	r18, Z
    1d04:	28 60       	ori	r18, 0x08	; 8
    1d06:	fc 01       	movw	r30, r24
    1d08:	20 83       	st	Z, r18

	// Async. mode, 8 bits, 1 bit de stop, pas de contrle de parit
   	UCSR0C |= (0<<UMSEL00)|(0<<UPM01)|(0<<UPM00)|(0<<USBS0)|(1<<UCSZ01)|(1<<UCSZ00)|(0<<UCPOL0);
    1d0a:	82 ec       	ldi	r24, 0xC2	; 194
    1d0c:	90 e0       	ldi	r25, 0x00	; 0
    1d0e:	22 ec       	ldi	r18, 0xC2	; 194
    1d10:	30 e0       	ldi	r19, 0x00	; 0
    1d12:	f9 01       	movw	r30, r18
    1d14:	20 81       	ld	r18, Z
    1d16:	26 60       	ori	r18, 0x06	; 6
    1d18:	fc 01       	movw	r30, r24
    1d1a:	20 83       	st	Z, r18
}
    1d1c:	0f 90       	pop	r0
    1d1e:	0f 90       	pop	r0
    1d20:	cf 91       	pop	r28
    1d22:	df 91       	pop	r29
    1d24:	08 95       	ret

00001d26 <RS232_sendByte>:

void RS232_sendByte(unsigned char data)
{
    1d26:	df 93       	push	r29
    1d28:	cf 93       	push	r28
    1d2a:	0f 92       	push	r0
    1d2c:	cd b7       	in	r28, 0x3d	; 61
    1d2e:	de b7       	in	r29, 0x3e	; 62
    1d30:	89 83       	std	Y+1, r24	; 0x01
    // UDRE Flag , is the transmit buffer UDR) ready to receive new data ?
	// if UDRE0 =1 the buffer is empty
	while (!(UCSR0A & (1<<UDRE0)));
    1d32:	00 00       	nop
    1d34:	80 ec       	ldi	r24, 0xC0	; 192
    1d36:	90 e0       	ldi	r25, 0x00	; 0
    1d38:	fc 01       	movw	r30, r24
    1d3a:	80 81       	ld	r24, Z
    1d3c:	88 2f       	mov	r24, r24
    1d3e:	90 e0       	ldi	r25, 0x00	; 0
    1d40:	80 72       	andi	r24, 0x20	; 32
    1d42:	90 70       	andi	r25, 0x00	; 0
    1d44:	00 97       	sbiw	r24, 0x00	; 0
    1d46:	b1 f3       	breq	.-20     	; 0x1d34 <RS232_sendByte+0xe>
    UDR0 = data;
    1d48:	86 ec       	ldi	r24, 0xC6	; 198
    1d4a:	90 e0       	ldi	r25, 0x00	; 0
    1d4c:	29 81       	ldd	r18, Y+1	; 0x01
    1d4e:	fc 01       	movw	r30, r24
    1d50:	20 83       	st	Z, r18
}
    1d52:	0f 90       	pop	r0
    1d54:	cf 91       	pop	r28
    1d56:	df 91       	pop	r29
    1d58:	08 95       	ret

00001d5a <RS232_print>:

void RS232_print(char* str)
{
    1d5a:	df 93       	push	r29
    1d5c:	cf 93       	push	r28
    1d5e:	00 d0       	rcall	.+0      	; 0x1d60 <RS232_print+0x6>
    1d60:	cd b7       	in	r28, 0x3d	; 61
    1d62:	de b7       	in	r29, 0x3e	; 62
    1d64:	9a 83       	std	Y+2, r25	; 0x02
    1d66:	89 83       	std	Y+1, r24	; 0x01
	while(*str!=0)
    1d68:	0c c0       	rjmp	.+24     	; 0x1d82 <RS232_print+0x28>
	{
		RS232_sendByte(*str++);		
    1d6a:	89 81       	ldd	r24, Y+1	; 0x01
    1d6c:	9a 81       	ldd	r25, Y+2	; 0x02
    1d6e:	fc 01       	movw	r30, r24
    1d70:	20 81       	ld	r18, Z
    1d72:	89 81       	ldd	r24, Y+1	; 0x01
    1d74:	9a 81       	ldd	r25, Y+2	; 0x02
    1d76:	01 96       	adiw	r24, 0x01	; 1
    1d78:	9a 83       	std	Y+2, r25	; 0x02
    1d7a:	89 83       	std	Y+1, r24	; 0x01
    1d7c:	82 2f       	mov	r24, r18
    1d7e:	0e 94 93 0e 	call	0x1d26	; 0x1d26 <RS232_sendByte>
    UDR0 = data;
}

void RS232_print(char* str)
{
	while(*str!=0)
    1d82:	89 81       	ldd	r24, Y+1	; 0x01
    1d84:	9a 81       	ldd	r25, Y+2	; 0x02
    1d86:	fc 01       	movw	r30, r24
    1d88:	80 81       	ld	r24, Z
    1d8a:	88 23       	and	r24, r24
    1d8c:	71 f7       	brne	.-36     	; 0x1d6a <RS232_print+0x10>
	{
		RS232_sendByte(*str++);		
	}
}
    1d8e:	0f 90       	pop	r0
    1d90:	0f 90       	pop	r0
    1d92:	cf 91       	pop	r28
    1d94:	df 91       	pop	r29
    1d96:	08 95       	ret

00001d98 <RS232_println>:

void RS232_println(char* str)
{
    1d98:	df 93       	push	r29
    1d9a:	cf 93       	push	r28
    1d9c:	00 d0       	rcall	.+0      	; 0x1d9e <RS232_println+0x6>
    1d9e:	cd b7       	in	r28, 0x3d	; 61
    1da0:	de b7       	in	r29, 0x3e	; 62
    1da2:	9a 83       	std	Y+2, r25	; 0x02
    1da4:	89 83       	std	Y+1, r24	; 0x01
	while(*str!=0)
    1da6:	0c c0       	rjmp	.+24     	; 0x1dc0 <RS232_println+0x28>
	{
		RS232_sendByte(*str++);	
    1da8:	89 81       	ldd	r24, Y+1	; 0x01
    1daa:	9a 81       	ldd	r25, Y+2	; 0x02
    1dac:	fc 01       	movw	r30, r24
    1dae:	20 81       	ld	r18, Z
    1db0:	89 81       	ldd	r24, Y+1	; 0x01
    1db2:	9a 81       	ldd	r25, Y+2	; 0x02
    1db4:	01 96       	adiw	r24, 0x01	; 1
    1db6:	9a 83       	std	Y+2, r25	; 0x02
    1db8:	89 83       	std	Y+1, r24	; 0x01
    1dba:	82 2f       	mov	r24, r18
    1dbc:	0e 94 93 0e 	call	0x1d26	; 0x1d26 <RS232_sendByte>
	}
}

void RS232_println(char* str)
{
	while(*str!=0)
    1dc0:	89 81       	ldd	r24, Y+1	; 0x01
    1dc2:	9a 81       	ldd	r25, Y+2	; 0x02
    1dc4:	fc 01       	movw	r30, r24
    1dc6:	80 81       	ld	r24, Z
    1dc8:	88 23       	and	r24, r24
    1dca:	71 f7       	brne	.-36     	; 0x1da8 <RS232_println+0x10>
	{
		RS232_sendByte(*str++);	
	}
	RS232_print("\r\n");
    1dcc:	89 e3       	ldi	r24, 0x39	; 57
    1dce:	91 e0       	ldi	r25, 0x01	; 1
    1dd0:	0e 94 ad 0e 	call	0x1d5a	; 0x1d5a <RS232_print>
}
    1dd4:	0f 90       	pop	r0
    1dd6:	0f 90       	pop	r0
    1dd8:	cf 91       	pop	r28
    1dda:	df 91       	pop	r29
    1ddc:	08 95       	ret

00001dde <RS232_sendBuffer>:

void RS232_sendBuffer(char* buffer, int bufferSize)
{
    1dde:	df 93       	push	r29
    1de0:	cf 93       	push	r28
    1de2:	00 d0       	rcall	.+0      	; 0x1de4 <RS232_sendBuffer+0x6>
    1de4:	00 d0       	rcall	.+0      	; 0x1de6 <RS232_sendBuffer+0x8>
    1de6:	00 d0       	rcall	.+0      	; 0x1de8 <RS232_sendBuffer+0xa>
    1de8:	cd b7       	in	r28, 0x3d	; 61
    1dea:	de b7       	in	r29, 0x3e	; 62
    1dec:	9c 83       	std	Y+4, r25	; 0x04
    1dee:	8b 83       	std	Y+3, r24	; 0x03
    1df0:	7e 83       	std	Y+6, r23	; 0x06
    1df2:	6d 83       	std	Y+5, r22	; 0x05
	for(int i=0;i<bufferSize;i++)
    1df4:	1a 82       	std	Y+2, r1	; 0x02
    1df6:	19 82       	std	Y+1, r1	; 0x01
    1df8:	11 c0       	rjmp	.+34     	; 0x1e1c <RS232_sendBuffer+0x3e>
	{
		RS232_sendByte(*buffer++);
    1dfa:	8b 81       	ldd	r24, Y+3	; 0x03
    1dfc:	9c 81       	ldd	r25, Y+4	; 0x04
    1dfe:	fc 01       	movw	r30, r24
    1e00:	20 81       	ld	r18, Z
    1e02:	8b 81       	ldd	r24, Y+3	; 0x03
    1e04:	9c 81       	ldd	r25, Y+4	; 0x04
    1e06:	01 96       	adiw	r24, 0x01	; 1
    1e08:	9c 83       	std	Y+4, r25	; 0x04
    1e0a:	8b 83       	std	Y+3, r24	; 0x03
    1e0c:	82 2f       	mov	r24, r18
    1e0e:	0e 94 93 0e 	call	0x1d26	; 0x1d26 <RS232_sendByte>
	RS232_print("\r\n");
}

void RS232_sendBuffer(char* buffer, int bufferSize)
{
	for(int i=0;i<bufferSize;i++)
    1e12:	89 81       	ldd	r24, Y+1	; 0x01
    1e14:	9a 81       	ldd	r25, Y+2	; 0x02
    1e16:	01 96       	adiw	r24, 0x01	; 1
    1e18:	9a 83       	std	Y+2, r25	; 0x02
    1e1a:	89 83       	std	Y+1, r24	; 0x01
    1e1c:	29 81       	ldd	r18, Y+1	; 0x01
    1e1e:	3a 81       	ldd	r19, Y+2	; 0x02
    1e20:	8d 81       	ldd	r24, Y+5	; 0x05
    1e22:	9e 81       	ldd	r25, Y+6	; 0x06
    1e24:	28 17       	cp	r18, r24
    1e26:	39 07       	cpc	r19, r25
    1e28:	44 f3       	brlt	.-48     	; 0x1dfa <RS232_sendBuffer+0x1c>
	{
		RS232_sendByte(*buffer++);
	}
}
    1e2a:	26 96       	adiw	r28, 0x06	; 6
    1e2c:	0f b6       	in	r0, 0x3f	; 63
    1e2e:	f8 94       	cli
    1e30:	de bf       	out	0x3e, r29	; 62
    1e32:	0f be       	out	0x3f, r0	; 63
    1e34:	cd bf       	out	0x3d, r28	; 61
    1e36:	cf 91       	pop	r28
    1e38:	df 91       	pop	r29
    1e3a:	08 95       	ret

00001e3c <sprintf>:
    1e3c:	ae e0       	ldi	r26, 0x0E	; 14
    1e3e:	b0 e0       	ldi	r27, 0x00	; 0
    1e40:	e4 e2       	ldi	r30, 0x24	; 36
    1e42:	ff e0       	ldi	r31, 0x0F	; 15
    1e44:	0c 94 d6 11 	jmp	0x23ac	; 0x23ac <__prologue_saves__+0x1c>
    1e48:	0d 89       	ldd	r16, Y+21	; 0x15
    1e4a:	1e 89       	ldd	r17, Y+22	; 0x16
    1e4c:	86 e0       	ldi	r24, 0x06	; 6
    1e4e:	8c 83       	std	Y+4, r24	; 0x04
    1e50:	1a 83       	std	Y+2, r17	; 0x02
    1e52:	09 83       	std	Y+1, r16	; 0x01
    1e54:	8f ef       	ldi	r24, 0xFF	; 255
    1e56:	9f e7       	ldi	r25, 0x7F	; 127
    1e58:	9e 83       	std	Y+6, r25	; 0x06
    1e5a:	8d 83       	std	Y+5, r24	; 0x05
    1e5c:	9e 01       	movw	r18, r28
    1e5e:	27 5e       	subi	r18, 0xE7	; 231
    1e60:	3f 4f       	sbci	r19, 0xFF	; 255
    1e62:	ce 01       	movw	r24, r28
    1e64:	01 96       	adiw	r24, 0x01	; 1
    1e66:	6f 89       	ldd	r22, Y+23	; 0x17
    1e68:	78 8d       	ldd	r23, Y+24	; 0x18
    1e6a:	a9 01       	movw	r20, r18
    1e6c:	0e 94 41 0f 	call	0x1e82	; 0x1e82 <vfprintf>
    1e70:	ef 81       	ldd	r30, Y+7	; 0x07
    1e72:	f8 85       	ldd	r31, Y+8	; 0x08
    1e74:	e0 0f       	add	r30, r16
    1e76:	f1 1f       	adc	r31, r17
    1e78:	10 82       	st	Z, r1
    1e7a:	2e 96       	adiw	r28, 0x0e	; 14
    1e7c:	e4 e0       	ldi	r30, 0x04	; 4
    1e7e:	0c 94 f2 11 	jmp	0x23e4	; 0x23e4 <__epilogue_restores__+0x1c>

00001e82 <vfprintf>:
    1e82:	ac e0       	ldi	r26, 0x0C	; 12
    1e84:	b0 e0       	ldi	r27, 0x00	; 0
    1e86:	e7 e4       	ldi	r30, 0x47	; 71
    1e88:	ff e0       	ldi	r31, 0x0F	; 15
    1e8a:	0c 94 c8 11 	jmp	0x2390	; 0x2390 <__prologue_saves__>
    1e8e:	6c 01       	movw	r12, r24
    1e90:	1b 01       	movw	r2, r22
    1e92:	8a 01       	movw	r16, r20
    1e94:	fc 01       	movw	r30, r24
    1e96:	17 82       	std	Z+7, r1	; 0x07
    1e98:	16 82       	std	Z+6, r1	; 0x06
    1e9a:	83 81       	ldd	r24, Z+3	; 0x03
    1e9c:	81 ff       	sbrs	r24, 1
    1e9e:	d1 c1       	rjmp	.+930    	; 0x2242 <vfprintf+0x3c0>
    1ea0:	2e 01       	movw	r4, r28
    1ea2:	08 94       	sec
    1ea4:	41 1c       	adc	r4, r1
    1ea6:	51 1c       	adc	r5, r1
    1ea8:	f6 01       	movw	r30, r12
    1eaa:	93 81       	ldd	r25, Z+3	; 0x03
    1eac:	f1 01       	movw	r30, r2
    1eae:	93 fd       	sbrc	r25, 3
    1eb0:	85 91       	lpm	r24, Z+
    1eb2:	93 ff       	sbrs	r25, 3
    1eb4:	81 91       	ld	r24, Z+
    1eb6:	1f 01       	movw	r2, r30
    1eb8:	88 23       	and	r24, r24
    1eba:	09 f4       	brne	.+2      	; 0x1ebe <vfprintf+0x3c>
    1ebc:	be c1       	rjmp	.+892    	; 0x223a <vfprintf+0x3b8>
    1ebe:	85 32       	cpi	r24, 0x25	; 37
    1ec0:	39 f4       	brne	.+14     	; 0x1ed0 <vfprintf+0x4e>
    1ec2:	93 fd       	sbrc	r25, 3
    1ec4:	85 91       	lpm	r24, Z+
    1ec6:	93 ff       	sbrs	r25, 3
    1ec8:	81 91       	ld	r24, Z+
    1eca:	1f 01       	movw	r2, r30
    1ecc:	85 32       	cpi	r24, 0x25	; 37
    1ece:	29 f4       	brne	.+10     	; 0x1eda <vfprintf+0x58>
    1ed0:	90 e0       	ldi	r25, 0x00	; 0
    1ed2:	b6 01       	movw	r22, r12
    1ed4:	0e 94 3e 11 	call	0x227c	; 0x227c <fputc>
    1ed8:	e7 cf       	rjmp	.-50     	; 0x1ea8 <vfprintf+0x26>
    1eda:	ee 24       	eor	r14, r14
    1edc:	ff 24       	eor	r15, r15
    1ede:	20 e0       	ldi	r18, 0x00	; 0
    1ee0:	20 32       	cpi	r18, 0x20	; 32
    1ee2:	b0 f4       	brcc	.+44     	; 0x1f10 <vfprintf+0x8e>
    1ee4:	8b 32       	cpi	r24, 0x2B	; 43
    1ee6:	69 f0       	breq	.+26     	; 0x1f02 <vfprintf+0x80>
    1ee8:	8c 32       	cpi	r24, 0x2C	; 44
    1eea:	28 f4       	brcc	.+10     	; 0x1ef6 <vfprintf+0x74>
    1eec:	80 32       	cpi	r24, 0x20	; 32
    1eee:	51 f0       	breq	.+20     	; 0x1f04 <vfprintf+0x82>
    1ef0:	83 32       	cpi	r24, 0x23	; 35
    1ef2:	71 f4       	brne	.+28     	; 0x1f10 <vfprintf+0x8e>
    1ef4:	0b c0       	rjmp	.+22     	; 0x1f0c <vfprintf+0x8a>
    1ef6:	8d 32       	cpi	r24, 0x2D	; 45
    1ef8:	39 f0       	breq	.+14     	; 0x1f08 <vfprintf+0x86>
    1efa:	80 33       	cpi	r24, 0x30	; 48
    1efc:	49 f4       	brne	.+18     	; 0x1f10 <vfprintf+0x8e>
    1efe:	21 60       	ori	r18, 0x01	; 1
    1f00:	2c c0       	rjmp	.+88     	; 0x1f5a <vfprintf+0xd8>
    1f02:	22 60       	ori	r18, 0x02	; 2
    1f04:	24 60       	ori	r18, 0x04	; 4
    1f06:	29 c0       	rjmp	.+82     	; 0x1f5a <vfprintf+0xd8>
    1f08:	28 60       	ori	r18, 0x08	; 8
    1f0a:	27 c0       	rjmp	.+78     	; 0x1f5a <vfprintf+0xd8>
    1f0c:	20 61       	ori	r18, 0x10	; 16
    1f0e:	25 c0       	rjmp	.+74     	; 0x1f5a <vfprintf+0xd8>
    1f10:	27 fd       	sbrc	r18, 7
    1f12:	2c c0       	rjmp	.+88     	; 0x1f6c <vfprintf+0xea>
    1f14:	38 2f       	mov	r19, r24
    1f16:	30 53       	subi	r19, 0x30	; 48
    1f18:	3a 30       	cpi	r19, 0x0A	; 10
    1f1a:	98 f4       	brcc	.+38     	; 0x1f42 <vfprintf+0xc0>
    1f1c:	26 ff       	sbrs	r18, 6
    1f1e:	08 c0       	rjmp	.+16     	; 0x1f30 <vfprintf+0xae>
    1f20:	8e 2d       	mov	r24, r14
    1f22:	88 0f       	add	r24, r24
    1f24:	e8 2e       	mov	r14, r24
    1f26:	ee 0c       	add	r14, r14
    1f28:	ee 0c       	add	r14, r14
    1f2a:	e8 0e       	add	r14, r24
    1f2c:	e3 0e       	add	r14, r19
    1f2e:	15 c0       	rjmp	.+42     	; 0x1f5a <vfprintf+0xd8>
    1f30:	8f 2d       	mov	r24, r15
    1f32:	88 0f       	add	r24, r24
    1f34:	f8 2e       	mov	r15, r24
    1f36:	ff 0c       	add	r15, r15
    1f38:	ff 0c       	add	r15, r15
    1f3a:	f8 0e       	add	r15, r24
    1f3c:	f3 0e       	add	r15, r19
    1f3e:	20 62       	ori	r18, 0x20	; 32
    1f40:	0c c0       	rjmp	.+24     	; 0x1f5a <vfprintf+0xd8>
    1f42:	8e 32       	cpi	r24, 0x2E	; 46
    1f44:	21 f4       	brne	.+8      	; 0x1f4e <vfprintf+0xcc>
    1f46:	26 fd       	sbrc	r18, 6
    1f48:	78 c1       	rjmp	.+752    	; 0x223a <vfprintf+0x3b8>
    1f4a:	20 64       	ori	r18, 0x40	; 64
    1f4c:	06 c0       	rjmp	.+12     	; 0x1f5a <vfprintf+0xd8>
    1f4e:	8c 36       	cpi	r24, 0x6C	; 108
    1f50:	11 f4       	brne	.+4      	; 0x1f56 <vfprintf+0xd4>
    1f52:	20 68       	ori	r18, 0x80	; 128
    1f54:	02 c0       	rjmp	.+4      	; 0x1f5a <vfprintf+0xd8>
    1f56:	88 36       	cpi	r24, 0x68	; 104
    1f58:	49 f4       	brne	.+18     	; 0x1f6c <vfprintf+0xea>
    1f5a:	f1 01       	movw	r30, r2
    1f5c:	93 fd       	sbrc	r25, 3
    1f5e:	85 91       	lpm	r24, Z+
    1f60:	93 ff       	sbrs	r25, 3
    1f62:	81 91       	ld	r24, Z+
    1f64:	1f 01       	movw	r2, r30
    1f66:	88 23       	and	r24, r24
    1f68:	09 f0       	breq	.+2      	; 0x1f6c <vfprintf+0xea>
    1f6a:	ba cf       	rjmp	.-140    	; 0x1ee0 <vfprintf+0x5e>
    1f6c:	98 2f       	mov	r25, r24
    1f6e:	95 54       	subi	r25, 0x45	; 69
    1f70:	93 30       	cpi	r25, 0x03	; 3
    1f72:	18 f0       	brcs	.+6      	; 0x1f7a <vfprintf+0xf8>
    1f74:	90 52       	subi	r25, 0x20	; 32
    1f76:	93 30       	cpi	r25, 0x03	; 3
    1f78:	28 f4       	brcc	.+10     	; 0x1f84 <vfprintf+0x102>
    1f7a:	0c 5f       	subi	r16, 0xFC	; 252
    1f7c:	1f 4f       	sbci	r17, 0xFF	; 255
    1f7e:	ff e3       	ldi	r31, 0x3F	; 63
    1f80:	f9 83       	std	Y+1, r31	; 0x01
    1f82:	0d c0       	rjmp	.+26     	; 0x1f9e <vfprintf+0x11c>
    1f84:	83 36       	cpi	r24, 0x63	; 99
    1f86:	31 f0       	breq	.+12     	; 0x1f94 <vfprintf+0x112>
    1f88:	83 37       	cpi	r24, 0x73	; 115
    1f8a:	71 f0       	breq	.+28     	; 0x1fa8 <vfprintf+0x126>
    1f8c:	83 35       	cpi	r24, 0x53	; 83
    1f8e:	09 f0       	breq	.+2      	; 0x1f92 <vfprintf+0x110>
    1f90:	60 c0       	rjmp	.+192    	; 0x2052 <vfprintf+0x1d0>
    1f92:	22 c0       	rjmp	.+68     	; 0x1fd8 <vfprintf+0x156>
    1f94:	f8 01       	movw	r30, r16
    1f96:	80 81       	ld	r24, Z
    1f98:	89 83       	std	Y+1, r24	; 0x01
    1f9a:	0e 5f       	subi	r16, 0xFE	; 254
    1f9c:	1f 4f       	sbci	r17, 0xFF	; 255
    1f9e:	42 01       	movw	r8, r4
    1fa0:	71 e0       	ldi	r23, 0x01	; 1
    1fa2:	a7 2e       	mov	r10, r23
    1fa4:	b1 2c       	mov	r11, r1
    1fa6:	16 c0       	rjmp	.+44     	; 0x1fd4 <vfprintf+0x152>
    1fa8:	62 e0       	ldi	r22, 0x02	; 2
    1faa:	66 2e       	mov	r6, r22
    1fac:	71 2c       	mov	r7, r1
    1fae:	60 0e       	add	r6, r16
    1fb0:	71 1e       	adc	r7, r17
    1fb2:	f8 01       	movw	r30, r16
    1fb4:	80 80       	ld	r8, Z
    1fb6:	91 80       	ldd	r9, Z+1	; 0x01
    1fb8:	26 ff       	sbrs	r18, 6
    1fba:	03 c0       	rjmp	.+6      	; 0x1fc2 <vfprintf+0x140>
    1fbc:	6e 2d       	mov	r22, r14
    1fbe:	70 e0       	ldi	r23, 0x00	; 0
    1fc0:	02 c0       	rjmp	.+4      	; 0x1fc6 <vfprintf+0x144>
    1fc2:	6f ef       	ldi	r22, 0xFF	; 255
    1fc4:	7f ef       	ldi	r23, 0xFF	; 255
    1fc6:	c4 01       	movw	r24, r8
    1fc8:	2c 87       	std	Y+12, r18	; 0x0c
    1fca:	0e 94 33 11 	call	0x2266	; 0x2266 <strnlen>
    1fce:	5c 01       	movw	r10, r24
    1fd0:	83 01       	movw	r16, r6
    1fd2:	2c 85       	ldd	r18, Y+12	; 0x0c
    1fd4:	2f 77       	andi	r18, 0x7F	; 127
    1fd6:	17 c0       	rjmp	.+46     	; 0x2006 <vfprintf+0x184>
    1fd8:	52 e0       	ldi	r21, 0x02	; 2
    1fda:	65 2e       	mov	r6, r21
    1fdc:	71 2c       	mov	r7, r1
    1fde:	60 0e       	add	r6, r16
    1fe0:	71 1e       	adc	r7, r17
    1fe2:	f8 01       	movw	r30, r16
    1fe4:	80 80       	ld	r8, Z
    1fe6:	91 80       	ldd	r9, Z+1	; 0x01
    1fe8:	26 ff       	sbrs	r18, 6
    1fea:	03 c0       	rjmp	.+6      	; 0x1ff2 <vfprintf+0x170>
    1fec:	6e 2d       	mov	r22, r14
    1fee:	70 e0       	ldi	r23, 0x00	; 0
    1ff0:	02 c0       	rjmp	.+4      	; 0x1ff6 <vfprintf+0x174>
    1ff2:	6f ef       	ldi	r22, 0xFF	; 255
    1ff4:	7f ef       	ldi	r23, 0xFF	; 255
    1ff6:	c4 01       	movw	r24, r8
    1ff8:	2c 87       	std	Y+12, r18	; 0x0c
    1ffa:	0e 94 28 11 	call	0x2250	; 0x2250 <strnlen_P>
    1ffe:	5c 01       	movw	r10, r24
    2000:	2c 85       	ldd	r18, Y+12	; 0x0c
    2002:	20 68       	ori	r18, 0x80	; 128
    2004:	83 01       	movw	r16, r6
    2006:	23 fd       	sbrc	r18, 3
    2008:	20 c0       	rjmp	.+64     	; 0x204a <vfprintf+0x1c8>
    200a:	08 c0       	rjmp	.+16     	; 0x201c <vfprintf+0x19a>
    200c:	80 e2       	ldi	r24, 0x20	; 32
    200e:	90 e0       	ldi	r25, 0x00	; 0
    2010:	b6 01       	movw	r22, r12
    2012:	2c 87       	std	Y+12, r18	; 0x0c
    2014:	0e 94 3e 11 	call	0x227c	; 0x227c <fputc>
    2018:	fa 94       	dec	r15
    201a:	2c 85       	ldd	r18, Y+12	; 0x0c
    201c:	8f 2d       	mov	r24, r15
    201e:	90 e0       	ldi	r25, 0x00	; 0
    2020:	a8 16       	cp	r10, r24
    2022:	b9 06       	cpc	r11, r25
    2024:	98 f3       	brcs	.-26     	; 0x200c <vfprintf+0x18a>
    2026:	11 c0       	rjmp	.+34     	; 0x204a <vfprintf+0x1c8>
    2028:	f4 01       	movw	r30, r8
    202a:	27 fd       	sbrc	r18, 7
    202c:	85 91       	lpm	r24, Z+
    202e:	27 ff       	sbrs	r18, 7
    2030:	81 91       	ld	r24, Z+
    2032:	4f 01       	movw	r8, r30
    2034:	90 e0       	ldi	r25, 0x00	; 0
    2036:	b6 01       	movw	r22, r12
    2038:	2c 87       	std	Y+12, r18	; 0x0c
    203a:	0e 94 3e 11 	call	0x227c	; 0x227c <fputc>
    203e:	2c 85       	ldd	r18, Y+12	; 0x0c
    2040:	f1 10       	cpse	r15, r1
    2042:	fa 94       	dec	r15
    2044:	08 94       	sec
    2046:	a1 08       	sbc	r10, r1
    2048:	b1 08       	sbc	r11, r1
    204a:	a1 14       	cp	r10, r1
    204c:	b1 04       	cpc	r11, r1
    204e:	61 f7       	brne	.-40     	; 0x2028 <vfprintf+0x1a6>
    2050:	f1 c0       	rjmp	.+482    	; 0x2234 <vfprintf+0x3b2>
    2052:	84 36       	cpi	r24, 0x64	; 100
    2054:	11 f0       	breq	.+4      	; 0x205a <vfprintf+0x1d8>
    2056:	89 36       	cpi	r24, 0x69	; 105
    2058:	49 f5       	brne	.+82     	; 0x20ac <vfprintf+0x22a>
    205a:	27 ff       	sbrs	r18, 7
    205c:	08 c0       	rjmp	.+16     	; 0x206e <vfprintf+0x1ec>
    205e:	f8 01       	movw	r30, r16
    2060:	60 81       	ld	r22, Z
    2062:	71 81       	ldd	r23, Z+1	; 0x01
    2064:	82 81       	ldd	r24, Z+2	; 0x02
    2066:	93 81       	ldd	r25, Z+3	; 0x03
    2068:	0c 5f       	subi	r16, 0xFC	; 252
    206a:	1f 4f       	sbci	r17, 0xFF	; 255
    206c:	09 c0       	rjmp	.+18     	; 0x2080 <vfprintf+0x1fe>
    206e:	f8 01       	movw	r30, r16
    2070:	60 81       	ld	r22, Z
    2072:	71 81       	ldd	r23, Z+1	; 0x01
    2074:	88 27       	eor	r24, r24
    2076:	77 fd       	sbrc	r23, 7
    2078:	80 95       	com	r24
    207a:	98 2f       	mov	r25, r24
    207c:	0e 5f       	subi	r16, 0xFE	; 254
    207e:	1f 4f       	sbci	r17, 0xFF	; 255
    2080:	4f e6       	ldi	r20, 0x6F	; 111
    2082:	b4 2e       	mov	r11, r20
    2084:	b2 22       	and	r11, r18
    2086:	97 ff       	sbrs	r25, 7
    2088:	09 c0       	rjmp	.+18     	; 0x209c <vfprintf+0x21a>
    208a:	90 95       	com	r25
    208c:	80 95       	com	r24
    208e:	70 95       	com	r23
    2090:	61 95       	neg	r22
    2092:	7f 4f       	sbci	r23, 0xFF	; 255
    2094:	8f 4f       	sbci	r24, 0xFF	; 255
    2096:	9f 4f       	sbci	r25, 0xFF	; 255
    2098:	f0 e8       	ldi	r31, 0x80	; 128
    209a:	bf 2a       	or	r11, r31
    209c:	a2 01       	movw	r20, r4
    209e:	2a e0       	ldi	r18, 0x0A	; 10
    20a0:	30 e0       	ldi	r19, 0x00	; 0
    20a2:	0e 94 6a 11 	call	0x22d4	; 0x22d4 <__ultoa_invert>
    20a6:	78 2e       	mov	r7, r24
    20a8:	74 18       	sub	r7, r4
    20aa:	45 c0       	rjmp	.+138    	; 0x2136 <vfprintf+0x2b4>
    20ac:	85 37       	cpi	r24, 0x75	; 117
    20ae:	31 f4       	brne	.+12     	; 0x20bc <vfprintf+0x23a>
    20b0:	3f ee       	ldi	r19, 0xEF	; 239
    20b2:	b3 2e       	mov	r11, r19
    20b4:	b2 22       	and	r11, r18
    20b6:	2a e0       	ldi	r18, 0x0A	; 10
    20b8:	30 e0       	ldi	r19, 0x00	; 0
    20ba:	25 c0       	rjmp	.+74     	; 0x2106 <vfprintf+0x284>
    20bc:	99 ef       	ldi	r25, 0xF9	; 249
    20be:	b9 2e       	mov	r11, r25
    20c0:	b2 22       	and	r11, r18
    20c2:	8f 36       	cpi	r24, 0x6F	; 111
    20c4:	c1 f0       	breq	.+48     	; 0x20f6 <vfprintf+0x274>
    20c6:	80 37       	cpi	r24, 0x70	; 112
    20c8:	20 f4       	brcc	.+8      	; 0x20d2 <vfprintf+0x250>
    20ca:	88 35       	cpi	r24, 0x58	; 88
    20cc:	09 f0       	breq	.+2      	; 0x20d0 <vfprintf+0x24e>
    20ce:	b5 c0       	rjmp	.+362    	; 0x223a <vfprintf+0x3b8>
    20d0:	0d c0       	rjmp	.+26     	; 0x20ec <vfprintf+0x26a>
    20d2:	80 37       	cpi	r24, 0x70	; 112
    20d4:	21 f0       	breq	.+8      	; 0x20de <vfprintf+0x25c>
    20d6:	88 37       	cpi	r24, 0x78	; 120
    20d8:	09 f0       	breq	.+2      	; 0x20dc <vfprintf+0x25a>
    20da:	af c0       	rjmp	.+350    	; 0x223a <vfprintf+0x3b8>
    20dc:	02 c0       	rjmp	.+4      	; 0x20e2 <vfprintf+0x260>
    20de:	20 e1       	ldi	r18, 0x10	; 16
    20e0:	b2 2a       	or	r11, r18
    20e2:	b4 fe       	sbrs	r11, 4
    20e4:	0b c0       	rjmp	.+22     	; 0x20fc <vfprintf+0x27a>
    20e6:	84 e0       	ldi	r24, 0x04	; 4
    20e8:	b8 2a       	or	r11, r24
    20ea:	08 c0       	rjmp	.+16     	; 0x20fc <vfprintf+0x27a>
    20ec:	b4 fe       	sbrs	r11, 4
    20ee:	09 c0       	rjmp	.+18     	; 0x2102 <vfprintf+0x280>
    20f0:	e6 e0       	ldi	r30, 0x06	; 6
    20f2:	be 2a       	or	r11, r30
    20f4:	06 c0       	rjmp	.+12     	; 0x2102 <vfprintf+0x280>
    20f6:	28 e0       	ldi	r18, 0x08	; 8
    20f8:	30 e0       	ldi	r19, 0x00	; 0
    20fa:	05 c0       	rjmp	.+10     	; 0x2106 <vfprintf+0x284>
    20fc:	20 e1       	ldi	r18, 0x10	; 16
    20fe:	30 e0       	ldi	r19, 0x00	; 0
    2100:	02 c0       	rjmp	.+4      	; 0x2106 <vfprintf+0x284>
    2102:	20 e1       	ldi	r18, 0x10	; 16
    2104:	32 e0       	ldi	r19, 0x02	; 2
    2106:	b7 fe       	sbrs	r11, 7
    2108:	08 c0       	rjmp	.+16     	; 0x211a <vfprintf+0x298>
    210a:	f8 01       	movw	r30, r16
    210c:	60 81       	ld	r22, Z
    210e:	71 81       	ldd	r23, Z+1	; 0x01
    2110:	82 81       	ldd	r24, Z+2	; 0x02
    2112:	93 81       	ldd	r25, Z+3	; 0x03
    2114:	0c 5f       	subi	r16, 0xFC	; 252
    2116:	1f 4f       	sbci	r17, 0xFF	; 255
    2118:	07 c0       	rjmp	.+14     	; 0x2128 <vfprintf+0x2a6>
    211a:	f8 01       	movw	r30, r16
    211c:	60 81       	ld	r22, Z
    211e:	71 81       	ldd	r23, Z+1	; 0x01
    2120:	80 e0       	ldi	r24, 0x00	; 0
    2122:	90 e0       	ldi	r25, 0x00	; 0
    2124:	0e 5f       	subi	r16, 0xFE	; 254
    2126:	1f 4f       	sbci	r17, 0xFF	; 255
    2128:	a2 01       	movw	r20, r4
    212a:	0e 94 6a 11 	call	0x22d4	; 0x22d4 <__ultoa_invert>
    212e:	78 2e       	mov	r7, r24
    2130:	74 18       	sub	r7, r4
    2132:	ff e7       	ldi	r31, 0x7F	; 127
    2134:	bf 22       	and	r11, r31
    2136:	b6 fe       	sbrs	r11, 6
    2138:	0b c0       	rjmp	.+22     	; 0x2150 <vfprintf+0x2ce>
    213a:	2e ef       	ldi	r18, 0xFE	; 254
    213c:	b2 22       	and	r11, r18
    213e:	7e 14       	cp	r7, r14
    2140:	38 f4       	brcc	.+14     	; 0x2150 <vfprintf+0x2ce>
    2142:	b4 fe       	sbrs	r11, 4
    2144:	07 c0       	rjmp	.+14     	; 0x2154 <vfprintf+0x2d2>
    2146:	b2 fc       	sbrc	r11, 2
    2148:	05 c0       	rjmp	.+10     	; 0x2154 <vfprintf+0x2d2>
    214a:	8f ee       	ldi	r24, 0xEF	; 239
    214c:	b8 22       	and	r11, r24
    214e:	02 c0       	rjmp	.+4      	; 0x2154 <vfprintf+0x2d2>
    2150:	a7 2c       	mov	r10, r7
    2152:	01 c0       	rjmp	.+2      	; 0x2156 <vfprintf+0x2d4>
    2154:	ae 2c       	mov	r10, r14
    2156:	8b 2d       	mov	r24, r11
    2158:	90 e0       	ldi	r25, 0x00	; 0
    215a:	b4 fe       	sbrs	r11, 4
    215c:	0d c0       	rjmp	.+26     	; 0x2178 <vfprintf+0x2f6>
    215e:	fe 01       	movw	r30, r28
    2160:	e7 0d       	add	r30, r7
    2162:	f1 1d       	adc	r31, r1
    2164:	20 81       	ld	r18, Z
    2166:	20 33       	cpi	r18, 0x30	; 48
    2168:	19 f4       	brne	.+6      	; 0x2170 <vfprintf+0x2ee>
    216a:	e9 ee       	ldi	r30, 0xE9	; 233
    216c:	be 22       	and	r11, r30
    216e:	09 c0       	rjmp	.+18     	; 0x2182 <vfprintf+0x300>
    2170:	a3 94       	inc	r10
    2172:	b2 fe       	sbrs	r11, 2
    2174:	06 c0       	rjmp	.+12     	; 0x2182 <vfprintf+0x300>
    2176:	04 c0       	rjmp	.+8      	; 0x2180 <vfprintf+0x2fe>
    2178:	86 78       	andi	r24, 0x86	; 134
    217a:	90 70       	andi	r25, 0x00	; 0
    217c:	00 97       	sbiw	r24, 0x00	; 0
    217e:	09 f0       	breq	.+2      	; 0x2182 <vfprintf+0x300>
    2180:	a3 94       	inc	r10
    2182:	8b 2c       	mov	r8, r11
    2184:	99 24       	eor	r9, r9
    2186:	b3 fc       	sbrc	r11, 3
    2188:	14 c0       	rjmp	.+40     	; 0x21b2 <vfprintf+0x330>
    218a:	b0 fe       	sbrs	r11, 0
    218c:	0f c0       	rjmp	.+30     	; 0x21ac <vfprintf+0x32a>
    218e:	af 14       	cp	r10, r15
    2190:	28 f4       	brcc	.+10     	; 0x219c <vfprintf+0x31a>
    2192:	e7 2c       	mov	r14, r7
    2194:	ef 0c       	add	r14, r15
    2196:	ea 18       	sub	r14, r10
    2198:	af 2c       	mov	r10, r15
    219a:	08 c0       	rjmp	.+16     	; 0x21ac <vfprintf+0x32a>
    219c:	e7 2c       	mov	r14, r7
    219e:	06 c0       	rjmp	.+12     	; 0x21ac <vfprintf+0x32a>
    21a0:	80 e2       	ldi	r24, 0x20	; 32
    21a2:	90 e0       	ldi	r25, 0x00	; 0
    21a4:	b6 01       	movw	r22, r12
    21a6:	0e 94 3e 11 	call	0x227c	; 0x227c <fputc>
    21aa:	a3 94       	inc	r10
    21ac:	af 14       	cp	r10, r15
    21ae:	c0 f3       	brcs	.-16     	; 0x21a0 <vfprintf+0x31e>
    21b0:	04 c0       	rjmp	.+8      	; 0x21ba <vfprintf+0x338>
    21b2:	af 14       	cp	r10, r15
    21b4:	10 f4       	brcc	.+4      	; 0x21ba <vfprintf+0x338>
    21b6:	fa 18       	sub	r15, r10
    21b8:	01 c0       	rjmp	.+2      	; 0x21bc <vfprintf+0x33a>
    21ba:	ff 24       	eor	r15, r15
    21bc:	84 fe       	sbrs	r8, 4
    21be:	0f c0       	rjmp	.+30     	; 0x21de <vfprintf+0x35c>
    21c0:	80 e3       	ldi	r24, 0x30	; 48
    21c2:	90 e0       	ldi	r25, 0x00	; 0
    21c4:	b6 01       	movw	r22, r12
    21c6:	0e 94 3e 11 	call	0x227c	; 0x227c <fputc>
    21ca:	82 fe       	sbrs	r8, 2
    21cc:	1f c0       	rjmp	.+62     	; 0x220c <vfprintf+0x38a>
    21ce:	81 fe       	sbrs	r8, 1
    21d0:	03 c0       	rjmp	.+6      	; 0x21d8 <vfprintf+0x356>
    21d2:	88 e5       	ldi	r24, 0x58	; 88
    21d4:	90 e0       	ldi	r25, 0x00	; 0
    21d6:	10 c0       	rjmp	.+32     	; 0x21f8 <vfprintf+0x376>
    21d8:	88 e7       	ldi	r24, 0x78	; 120
    21da:	90 e0       	ldi	r25, 0x00	; 0
    21dc:	0d c0       	rjmp	.+26     	; 0x21f8 <vfprintf+0x376>
    21de:	c4 01       	movw	r24, r8
    21e0:	86 78       	andi	r24, 0x86	; 134
    21e2:	90 70       	andi	r25, 0x00	; 0
    21e4:	00 97       	sbiw	r24, 0x00	; 0
    21e6:	91 f0       	breq	.+36     	; 0x220c <vfprintf+0x38a>
    21e8:	81 fc       	sbrc	r8, 1
    21ea:	02 c0       	rjmp	.+4      	; 0x21f0 <vfprintf+0x36e>
    21ec:	80 e2       	ldi	r24, 0x20	; 32
    21ee:	01 c0       	rjmp	.+2      	; 0x21f2 <vfprintf+0x370>
    21f0:	8b e2       	ldi	r24, 0x2B	; 43
    21f2:	b7 fc       	sbrc	r11, 7
    21f4:	8d e2       	ldi	r24, 0x2D	; 45
    21f6:	90 e0       	ldi	r25, 0x00	; 0
    21f8:	b6 01       	movw	r22, r12
    21fa:	0e 94 3e 11 	call	0x227c	; 0x227c <fputc>
    21fe:	06 c0       	rjmp	.+12     	; 0x220c <vfprintf+0x38a>
    2200:	80 e3       	ldi	r24, 0x30	; 48
    2202:	90 e0       	ldi	r25, 0x00	; 0
    2204:	b6 01       	movw	r22, r12
    2206:	0e 94 3e 11 	call	0x227c	; 0x227c <fputc>
    220a:	ea 94       	dec	r14
    220c:	7e 14       	cp	r7, r14
    220e:	c0 f3       	brcs	.-16     	; 0x2200 <vfprintf+0x37e>
    2210:	7a 94       	dec	r7
    2212:	f2 01       	movw	r30, r4
    2214:	e7 0d       	add	r30, r7
    2216:	f1 1d       	adc	r31, r1
    2218:	80 81       	ld	r24, Z
    221a:	90 e0       	ldi	r25, 0x00	; 0
    221c:	b6 01       	movw	r22, r12
    221e:	0e 94 3e 11 	call	0x227c	; 0x227c <fputc>
    2222:	77 20       	and	r7, r7
    2224:	a9 f7       	brne	.-22     	; 0x2210 <vfprintf+0x38e>
    2226:	06 c0       	rjmp	.+12     	; 0x2234 <vfprintf+0x3b2>
    2228:	80 e2       	ldi	r24, 0x20	; 32
    222a:	90 e0       	ldi	r25, 0x00	; 0
    222c:	b6 01       	movw	r22, r12
    222e:	0e 94 3e 11 	call	0x227c	; 0x227c <fputc>
    2232:	fa 94       	dec	r15
    2234:	ff 20       	and	r15, r15
    2236:	c1 f7       	brne	.-16     	; 0x2228 <vfprintf+0x3a6>
    2238:	37 ce       	rjmp	.-914    	; 0x1ea8 <vfprintf+0x26>
    223a:	f6 01       	movw	r30, r12
    223c:	26 81       	ldd	r18, Z+6	; 0x06
    223e:	37 81       	ldd	r19, Z+7	; 0x07
    2240:	02 c0       	rjmp	.+4      	; 0x2246 <vfprintf+0x3c4>
    2242:	2f ef       	ldi	r18, 0xFF	; 255
    2244:	3f ef       	ldi	r19, 0xFF	; 255
    2246:	c9 01       	movw	r24, r18
    2248:	2c 96       	adiw	r28, 0x0c	; 12
    224a:	e2 e1       	ldi	r30, 0x12	; 18
    224c:	0c 94 e4 11 	jmp	0x23c8	; 0x23c8 <__epilogue_restores__>

00002250 <strnlen_P>:
    2250:	fc 01       	movw	r30, r24
    2252:	05 90       	lpm	r0, Z+
    2254:	61 50       	subi	r22, 0x01	; 1
    2256:	70 40       	sbci	r23, 0x00	; 0
    2258:	01 10       	cpse	r0, r1
    225a:	d8 f7       	brcc	.-10     	; 0x2252 <strnlen_P+0x2>
    225c:	80 95       	com	r24
    225e:	90 95       	com	r25
    2260:	8e 0f       	add	r24, r30
    2262:	9f 1f       	adc	r25, r31
    2264:	08 95       	ret

00002266 <strnlen>:
    2266:	fc 01       	movw	r30, r24
    2268:	61 50       	subi	r22, 0x01	; 1
    226a:	70 40       	sbci	r23, 0x00	; 0
    226c:	01 90       	ld	r0, Z+
    226e:	01 10       	cpse	r0, r1
    2270:	d8 f7       	brcc	.-10     	; 0x2268 <strnlen+0x2>
    2272:	80 95       	com	r24
    2274:	90 95       	com	r25
    2276:	8e 0f       	add	r24, r30
    2278:	9f 1f       	adc	r25, r31
    227a:	08 95       	ret

0000227c <fputc>:
    227c:	0f 93       	push	r16
    227e:	1f 93       	push	r17
    2280:	cf 93       	push	r28
    2282:	df 93       	push	r29
    2284:	8c 01       	movw	r16, r24
    2286:	eb 01       	movw	r28, r22
    2288:	8b 81       	ldd	r24, Y+3	; 0x03
    228a:	81 ff       	sbrs	r24, 1
    228c:	1b c0       	rjmp	.+54     	; 0x22c4 <fputc+0x48>
    228e:	82 ff       	sbrs	r24, 2
    2290:	0d c0       	rjmp	.+26     	; 0x22ac <fputc+0x30>
    2292:	2e 81       	ldd	r18, Y+6	; 0x06
    2294:	3f 81       	ldd	r19, Y+7	; 0x07
    2296:	8c 81       	ldd	r24, Y+4	; 0x04
    2298:	9d 81       	ldd	r25, Y+5	; 0x05
    229a:	28 17       	cp	r18, r24
    229c:	39 07       	cpc	r19, r25
    229e:	64 f4       	brge	.+24     	; 0x22b8 <fputc+0x3c>
    22a0:	e8 81       	ld	r30, Y
    22a2:	f9 81       	ldd	r31, Y+1	; 0x01
    22a4:	01 93       	st	Z+, r16
    22a6:	f9 83       	std	Y+1, r31	; 0x01
    22a8:	e8 83       	st	Y, r30
    22aa:	06 c0       	rjmp	.+12     	; 0x22b8 <fputc+0x3c>
    22ac:	e8 85       	ldd	r30, Y+8	; 0x08
    22ae:	f9 85       	ldd	r31, Y+9	; 0x09
    22b0:	80 2f       	mov	r24, r16
    22b2:	09 95       	icall
    22b4:	00 97       	sbiw	r24, 0x00	; 0
    22b6:	31 f4       	brne	.+12     	; 0x22c4 <fputc+0x48>
    22b8:	8e 81       	ldd	r24, Y+6	; 0x06
    22ba:	9f 81       	ldd	r25, Y+7	; 0x07
    22bc:	01 96       	adiw	r24, 0x01	; 1
    22be:	9f 83       	std	Y+7, r25	; 0x07
    22c0:	8e 83       	std	Y+6, r24	; 0x06
    22c2:	02 c0       	rjmp	.+4      	; 0x22c8 <fputc+0x4c>
    22c4:	0f ef       	ldi	r16, 0xFF	; 255
    22c6:	1f ef       	ldi	r17, 0xFF	; 255
    22c8:	c8 01       	movw	r24, r16
    22ca:	df 91       	pop	r29
    22cc:	cf 91       	pop	r28
    22ce:	1f 91       	pop	r17
    22d0:	0f 91       	pop	r16
    22d2:	08 95       	ret

000022d4 <__ultoa_invert>:
    22d4:	fa 01       	movw	r30, r20
    22d6:	aa 27       	eor	r26, r26
    22d8:	28 30       	cpi	r18, 0x08	; 8
    22da:	51 f1       	breq	.+84     	; 0x2330 <__ultoa_invert+0x5c>
    22dc:	20 31       	cpi	r18, 0x10	; 16
    22de:	81 f1       	breq	.+96     	; 0x2340 <__ultoa_invert+0x6c>
    22e0:	e8 94       	clt
    22e2:	6f 93       	push	r22
    22e4:	6e 7f       	andi	r22, 0xFE	; 254
    22e6:	6e 5f       	subi	r22, 0xFE	; 254
    22e8:	7f 4f       	sbci	r23, 0xFF	; 255
    22ea:	8f 4f       	sbci	r24, 0xFF	; 255
    22ec:	9f 4f       	sbci	r25, 0xFF	; 255
    22ee:	af 4f       	sbci	r26, 0xFF	; 255
    22f0:	b1 e0       	ldi	r27, 0x01	; 1
    22f2:	3e d0       	rcall	.+124    	; 0x2370 <__ultoa_invert+0x9c>
    22f4:	b4 e0       	ldi	r27, 0x04	; 4
    22f6:	3c d0       	rcall	.+120    	; 0x2370 <__ultoa_invert+0x9c>
    22f8:	67 0f       	add	r22, r23
    22fa:	78 1f       	adc	r23, r24
    22fc:	89 1f       	adc	r24, r25
    22fe:	9a 1f       	adc	r25, r26
    2300:	a1 1d       	adc	r26, r1
    2302:	68 0f       	add	r22, r24
    2304:	79 1f       	adc	r23, r25
    2306:	8a 1f       	adc	r24, r26
    2308:	91 1d       	adc	r25, r1
    230a:	a1 1d       	adc	r26, r1
    230c:	6a 0f       	add	r22, r26
    230e:	71 1d       	adc	r23, r1
    2310:	81 1d       	adc	r24, r1
    2312:	91 1d       	adc	r25, r1
    2314:	a1 1d       	adc	r26, r1
    2316:	20 d0       	rcall	.+64     	; 0x2358 <__ultoa_invert+0x84>
    2318:	09 f4       	brne	.+2      	; 0x231c <__ultoa_invert+0x48>
    231a:	68 94       	set
    231c:	3f 91       	pop	r19
    231e:	2a e0       	ldi	r18, 0x0A	; 10
    2320:	26 9f       	mul	r18, r22
    2322:	11 24       	eor	r1, r1
    2324:	30 19       	sub	r19, r0
    2326:	30 5d       	subi	r19, 0xD0	; 208
    2328:	31 93       	st	Z+, r19
    232a:	de f6       	brtc	.-74     	; 0x22e2 <__ultoa_invert+0xe>
    232c:	cf 01       	movw	r24, r30
    232e:	08 95       	ret
    2330:	46 2f       	mov	r20, r22
    2332:	47 70       	andi	r20, 0x07	; 7
    2334:	40 5d       	subi	r20, 0xD0	; 208
    2336:	41 93       	st	Z+, r20
    2338:	b3 e0       	ldi	r27, 0x03	; 3
    233a:	0f d0       	rcall	.+30     	; 0x235a <__ultoa_invert+0x86>
    233c:	c9 f7       	brne	.-14     	; 0x2330 <__ultoa_invert+0x5c>
    233e:	f6 cf       	rjmp	.-20     	; 0x232c <__ultoa_invert+0x58>
    2340:	46 2f       	mov	r20, r22
    2342:	4f 70       	andi	r20, 0x0F	; 15
    2344:	40 5d       	subi	r20, 0xD0	; 208
    2346:	4a 33       	cpi	r20, 0x3A	; 58
    2348:	18 f0       	brcs	.+6      	; 0x2350 <__ultoa_invert+0x7c>
    234a:	49 5d       	subi	r20, 0xD9	; 217
    234c:	31 fd       	sbrc	r19, 1
    234e:	40 52       	subi	r20, 0x20	; 32
    2350:	41 93       	st	Z+, r20
    2352:	02 d0       	rcall	.+4      	; 0x2358 <__ultoa_invert+0x84>
    2354:	a9 f7       	brne	.-22     	; 0x2340 <__ultoa_invert+0x6c>
    2356:	ea cf       	rjmp	.-44     	; 0x232c <__ultoa_invert+0x58>
    2358:	b4 e0       	ldi	r27, 0x04	; 4
    235a:	a6 95       	lsr	r26
    235c:	97 95       	ror	r25
    235e:	87 95       	ror	r24
    2360:	77 95       	ror	r23
    2362:	67 95       	ror	r22
    2364:	ba 95       	dec	r27
    2366:	c9 f7       	brne	.-14     	; 0x235a <__ultoa_invert+0x86>
    2368:	00 97       	sbiw	r24, 0x00	; 0
    236a:	61 05       	cpc	r22, r1
    236c:	71 05       	cpc	r23, r1
    236e:	08 95       	ret
    2370:	9b 01       	movw	r18, r22
    2372:	ac 01       	movw	r20, r24
    2374:	0a 2e       	mov	r0, r26
    2376:	06 94       	lsr	r0
    2378:	57 95       	ror	r21
    237a:	47 95       	ror	r20
    237c:	37 95       	ror	r19
    237e:	27 95       	ror	r18
    2380:	ba 95       	dec	r27
    2382:	c9 f7       	brne	.-14     	; 0x2376 <__ultoa_invert+0xa2>
    2384:	62 0f       	add	r22, r18
    2386:	73 1f       	adc	r23, r19
    2388:	84 1f       	adc	r24, r20
    238a:	95 1f       	adc	r25, r21
    238c:	a0 1d       	adc	r26, r0
    238e:	08 95       	ret

00002390 <__prologue_saves__>:
    2390:	2f 92       	push	r2
    2392:	3f 92       	push	r3
    2394:	4f 92       	push	r4
    2396:	5f 92       	push	r5
    2398:	6f 92       	push	r6
    239a:	7f 92       	push	r7
    239c:	8f 92       	push	r8
    239e:	9f 92       	push	r9
    23a0:	af 92       	push	r10
    23a2:	bf 92       	push	r11
    23a4:	cf 92       	push	r12
    23a6:	df 92       	push	r13
    23a8:	ef 92       	push	r14
    23aa:	ff 92       	push	r15
    23ac:	0f 93       	push	r16
    23ae:	1f 93       	push	r17
    23b0:	cf 93       	push	r28
    23b2:	df 93       	push	r29
    23b4:	cd b7       	in	r28, 0x3d	; 61
    23b6:	de b7       	in	r29, 0x3e	; 62
    23b8:	ca 1b       	sub	r28, r26
    23ba:	db 0b       	sbc	r29, r27
    23bc:	0f b6       	in	r0, 0x3f	; 63
    23be:	f8 94       	cli
    23c0:	de bf       	out	0x3e, r29	; 62
    23c2:	0f be       	out	0x3f, r0	; 63
    23c4:	cd bf       	out	0x3d, r28	; 61
    23c6:	09 94       	ijmp

000023c8 <__epilogue_restores__>:
    23c8:	2a 88       	ldd	r2, Y+18	; 0x12
    23ca:	39 88       	ldd	r3, Y+17	; 0x11
    23cc:	48 88       	ldd	r4, Y+16	; 0x10
    23ce:	5f 84       	ldd	r5, Y+15	; 0x0f
    23d0:	6e 84       	ldd	r6, Y+14	; 0x0e
    23d2:	7d 84       	ldd	r7, Y+13	; 0x0d
    23d4:	8c 84       	ldd	r8, Y+12	; 0x0c
    23d6:	9b 84       	ldd	r9, Y+11	; 0x0b
    23d8:	aa 84       	ldd	r10, Y+10	; 0x0a
    23da:	b9 84       	ldd	r11, Y+9	; 0x09
    23dc:	c8 84       	ldd	r12, Y+8	; 0x08
    23de:	df 80       	ldd	r13, Y+7	; 0x07
    23e0:	ee 80       	ldd	r14, Y+6	; 0x06
    23e2:	fd 80       	ldd	r15, Y+5	; 0x05
    23e4:	0c 81       	ldd	r16, Y+4	; 0x04
    23e6:	1b 81       	ldd	r17, Y+3	; 0x03
    23e8:	aa 81       	ldd	r26, Y+2	; 0x02
    23ea:	b9 81       	ldd	r27, Y+1	; 0x01
    23ec:	ce 0f       	add	r28, r30
    23ee:	d1 1d       	adc	r29, r1
    23f0:	0f b6       	in	r0, 0x3f	; 63
    23f2:	f8 94       	cli
    23f4:	de bf       	out	0x3e, r29	; 62
    23f6:	0f be       	out	0x3f, r0	; 63
    23f8:	cd bf       	out	0x3d, r28	; 61
    23fa:	ed 01       	movw	r28, r26
    23fc:	08 95       	ret

000023fe <_exit>:
    23fe:	f8 94       	cli

00002400 <__stop_program>:
    2400:	ff cf       	rjmp	.-2      	; 0x2400 <__stop_program>
